
nokiav3.elf:     file format elf32-avr

Sections:
Idx Name          Size      VMA       LMA       File off  Algn
  0 .text         00002b36  00000000  00000000  00000094  2**1
                  CONTENTS, ALLOC, LOAD, READONLY, CODE
  1 .data         00000006  00800060  00002b36  00002bca  2**0
                  CONTENTS, ALLOC, LOAD, DATA
  2 .bss          00000202  00800066  00800066  00002bd0  2**0
                  ALLOC

Disassembly of section .text:

00000000 <__vectors>:
       0:	0c 94 4f 0a 	jmp	0x149e	; 0x149e <__ctors_end>
       4:	0c 94 6c 0a 	jmp	0x14d8	; 0x14d8 <__bad_interrupt>
       8:	0c 94 6c 0a 	jmp	0x14d8	; 0x14d8 <__bad_interrupt>
       c:	0c 94 77 0a 	jmp	0x14ee	; 0x14ee <__vector_3>
      10:	0c 94 6c 0a 	jmp	0x14d8	; 0x14d8 <__bad_interrupt>
      14:	0c 94 6c 0a 	jmp	0x14d8	; 0x14d8 <__bad_interrupt>
      18:	0c 94 6c 0a 	jmp	0x14d8	; 0x14d8 <__bad_interrupt>
      1c:	0c 94 6c 0a 	jmp	0x14d8	; 0x14d8 <__bad_interrupt>
      20:	0c 94 6c 0a 	jmp	0x14d8	; 0x14d8 <__bad_interrupt>
      24:	0c 94 6c 0a 	jmp	0x14d8	; 0x14d8 <__bad_interrupt>
      28:	0c 94 6c 0a 	jmp	0x14d8	; 0x14d8 <__bad_interrupt>
      2c:	0c 94 6c 0a 	jmp	0x14d8	; 0x14d8 <__bad_interrupt>
      30:	0c 94 6c 0a 	jmp	0x14d8	; 0x14d8 <__bad_interrupt>
      34:	0c 94 6c 0a 	jmp	0x14d8	; 0x14d8 <__bad_interrupt>
      38:	0c 94 6c 0a 	jmp	0x14d8	; 0x14d8 <__bad_interrupt>
      3c:	0c 94 6c 0a 	jmp	0x14d8	; 0x14d8 <__bad_interrupt>
      40:	0c 94 6c 0a 	jmp	0x14d8	; 0x14d8 <__bad_interrupt>
      44:	0c 94 6c 0a 	jmp	0x14d8	; 0x14d8 <__bad_interrupt>
      48:	0c 94 6c 0a 	jmp	0x14d8	; 0x14d8 <__bad_interrupt>
      4c:	0c 94 6c 0a 	jmp	0x14d8	; 0x14d8 <__bad_interrupt>
      50:	0c 94 6c 0a 	jmp	0x14d8	; 0x14d8 <__bad_interrupt>

00000054 <__c.1457>:
      54:	4d 61 6d 79 20 74 65 72 61 7a 3a 00                 Mamy teraz:.

00000060 <zegar>:
	...
      78:	00 80 40 20 20 10 08 04 04 04 02 02 02 02 8a fd     ..@  ...........
      88:	81 01 e5 a5 be 02 02 02 02 04 04 04 08 10 20 20     ..............  
      98:	40 80 00 00 00 00 00 00 00 00 00 00 00 00 00 00     @...............
	...
      c8:	c0 30 08 06 01 00 00 00 00 00 00 00 00 00 00 00     .0..............
	...
      ec:	00 00 01 06 08 30 c0 00 00 00 00 00 00 00 00 00     .....0..........
	...
     118:	00 00 e0 1f 00 e0 a0 e0 00 00 00 00 00 00 00 00     ................
	...
     130:	00 80 00 00 00 00 00 00 00 00 00 00 00 00 00 00     ................
     140:	00 00 00 00 a0 a0 e0 1f e0 00 00 00 00 00 00 00     ................
	...
     16c:	00 00 03 7c 80 02 02 03 00 00 00 00 00 00 00 00     ...|............
	...
     198:	02 02 83 7c 03 00 00 00 00 00 00 00 00 00 00 00     ...|............
	...
     1c4:	01 06 08 30 40 80 00 00 00 00 00 00 00 00 00 00     ...0@...........
     1d4:	00 00 00 c0 40 40 40 00 00 00 00 00 00 00 00 00     ....@@@.........
     1e4:	00 00 00 00 00 80 40 30 08 06 01 00 00 00 00 00     ......@0........
	...
     21c:	00 00 01 02 02 04 08 10 10 10 20 20 20 20 20 4f     ..........     O
     22c:	4a 4a 4e 60 20 20 20 20 20 10 10 10 08 04 02 02     JJN`     .......
     23c:	01 00 00 00 00 00 00 00 00 00 00 00 00 00 00 00     ................
	...

00000258 <cyfry>:
     258:	fc fe 03 81 61 1b fe fc 0f 1f 36 21 20 30 1f 0f     ....a.....6! 0..
     268:	04 04 06 ff ff 00 00 00 20 20 20 3f 3f 20 20 20     ........   ??   
     278:	0c 0e 03 01 81 c3 7e 3c 38 3c 26 23 21 20 20 20     ......~<8<&#!   
     288:	0c 0e 43 41 41 43 fe bc 0c 1c 30 20 20 30 1f 0f     ..CAAC....0  0..
     298:	00 e0 fc 1f 83 80 00 00 0f 0f 08 08 3f 3f 08 08     ............??..
     2a8:	3f 3f 21 21 21 61 c1 81 0c 1c 30 20 20 30 1f 0f     ??!!!a....0  0..
     2b8:	f0 f8 2c 26 23 61 c1 81 0f 1f 30 20 20 20 1f 0f     ..,&#a....0   ..
     2c8:	01 01 01 01 81 f1 7f 0f 00 00 00 3c 3f 03 00 00     ...........<?...
     2d8:	1c be e3 41 41 e3 be 1c 0f 1f 30 20 20 30 1f 0f     ...AA.....0  0..
     2e8:	3c 7e c3 81 81 83 fe fc 20 20 20 30 18 0e 07 01     <~......   0....

000002f8 <buzia>:
     2f8:	ff ff 01 01 01 01 01 01 01 01 01 01 01 01 01 01     ................
     308:	01 01 01 01 01 01 01 01 01 01 01 01 01 01 01 01     ................
     318:	01 01 01 01 01 01 01 01 01 01 01 01 01 01 01 01     ................
     328:	01 01 01 01 01 01 01 01 01 01 01 01 01 01 01 01     ................
     338:	01 01 01 01 01 01 01 01 01 01 01 01 01 01 01 01     ................
     348:	01 01 ff ff ff ff 00 00 00 00 00 00 00 00 00 00     ................
	...
     364:	c0 f0 f8 f8 f8 f0 00 00 00 00 00 00 00 00 00 00     ................
	...
     37c:	00 e0 f0 f0 f0 f0 c0 00 00 00 00 00 00 00 00 00     ................
	...
     39c:	00 00 ff ff ff ff 00 00 00 00 00 00 00 00 00 00     ................
	...
     3b8:	03 07 07 07 07 07 00 00 00 00 00 00 00 00 00 00     ................
	...
     3d0:	00 0f 1f 1f 1f 1f 0f 00 00 00 00 00 00 00 00 00     ................
	...
     3f0:	00 00 ff ff ff ff 00 00 00 00 00 00 00 00 00 00     ................
	...
     410:	80 80 80 c0 c0 c0 c0 c0 c0 c0 c0 c0 c0 c0 c0 c0     ................
     420:	c0 c0 c0 c0 80 80 80 00 00 00 00 00 00 00 00 00     ................
	...
     444:	00 00 ff ff ff ff 00 00 00 00 00 00 00 00 00 00     ................
     454:	00 00 00 00 00 80 c0 e0 f0 78 38 1c 0e 0e 07 07     .........x8.....
     464:	03 01 01 01 00 00 00 00 00 00 00 00 00 00 00 00     ................
     474:	00 00 00 01 01 01 03 03 07 0f 0e 1c 3c 78 70 e0     ............<xp.
     484:	e0 c0 80 80 00 00 00 00 00 00 00 00 00 00 00 00     ................
     494:	00 00 00 00 00 00 ff ff ff ff 80 80 80 80 80 80     ................
     4a4:	80 80 80 80 80 80 80 86 87 87 87 81 80 80 80 80     ................
     4b4:	80 80 80 80 80 80 80 80 80 80 80 80 80 80 80 80     ................
     4c4:	80 80 80 80 80 80 80 80 80 80 80 80 80 80 80 80     ................
     4d4:	80 80 80 80 80 81 83 87 87 86 80 80 80 80 80 80     ................
     4e4:	80 80 80 80 80 80 80 80 80 80 ff ff ff ff 01 01     ................
     4f4:	01 01 01 01 01 01 01 01 01 01 01 01 01 01 01 01     ................
     504:	01 01 01 01 01 01 01 01 01 01 01 01 01 01 01 01     ................
     514:	01 01 01 01 01 01 01 01 01 01 01 01 01 01 01 01     ................
     524:	01 01 01 01 01 01 01 01 01 01 01 01 01 01 01 01     ................
     534:	01 01 01 01 01 01 01 01 01 01 01 01 01 01 ff ff     ................
     544:	ff ff 00 00 00 00 00 00 00 00 00 00 00 00 00 00     ................
	...
     55c:	c0 f0 f8 f8 f8 f0 00 00 00 00 00 00 00 00 00 00     ................
	...
     574:	00 e0 f0 f0 f0 f0 c0 00 00 00 00 00 00 00 00 00     ................
	...
     594:	00 00 ff ff ff ff 00 00 00 00 00 00 00 00 00 00     ................
	...
     5b0:	03 07 07 07 07 07 00 00 00 00 00 00 00 00 00 00     ................
	...
     5c8:	00 0f 1f 1f 1f 1f 0f 00 00 00 00 00 00 00 00 00     ................
	...
     5e8:	00 00 ff ff ff ff 00 00 00 00 00 00 00 00 00 00     ................
	...
     604:	00 00 00 80 80 c0 c0 c0 c0 c0 e0 e0 e0 e0 e0 e0     ................
     614:	e0 e0 e0 e0 e0 e0 c0 c0 c0 c0 c0 c0 c0 c0 80 80     ................
	...
     63c:	00 00 ff ff ff ff 00 00 00 00 00 00 00 00 00 00     ................
     64c:	60 60 70 30 38 38 18 1c 0c 0c 0e 06 07 07 03 03     ``p088..........
     65c:	01 01 01 00 00 00 00 00 00 00 00 00 00 00 00 00     ................
	...
     674:	01 01 03 03 07 06 0e 0e 0c 1c 1c 18 38 38 30 70     ............880p
     684:	60 20 00 00 00 00 00 00 00 00 00 00 00 00 ff ff     ` ..............
     694:	ff ff 80 80 80 80 80 80 80 80 80 80 80 80 80 80     ................
     6a4:	80 80 80 80 80 80 80 80 80 80 80 80 80 80 80 80     ................
     6b4:	80 80 80 80 80 80 80 80 80 80 80 80 80 80 80 80     ................
     6c4:	80 80 80 80 80 80 80 80 80 80 80 80 80 80 80 80     ................
     6d4:	80 80 80 80 80 80 80 80 80 80 80 80 80 80 80 80     ................
     6e4:	80 80 ff ff ff ff 01 01 01 01 01 01 01 01 01 01     ................
     6f4:	01 01 01 01 01 01 01 01 01 01 01 01 01 01 01 01     ................
     704:	01 01 01 01 01 01 01 01 01 01 01 01 01 01 01 01     ................
     714:	01 01 01 01 01 01 01 01 01 01 01 01 01 01 01 01     ................
     724:	01 01 01 01 01 01 01 01 01 01 01 01 01 01 01 01     ................
     734:	01 01 01 01 01 01 ff ff ff ff 00 00 00 00 00 00     ................
	...
     754:	c0 f0 f8 f8 f8 f0 00 00 00 00 00 00 00 00 00 00     ................
	...
     76c:	00 e0 f0 f0 f0 f0 c0 00 00 00 00 00 00 00 00 00     ................
	...
     78c:	00 00 ff ff ff ff 00 00 00 00 00 00 00 00 00 00     ................
	...
     7a8:	03 07 07 07 07 07 00 00 00 00 00 00 00 00 00 00     ................
	...
     7c0:	00 0f 1f 1f 1f 1f 0f 00 00 00 00 00 00 00 00 00     ................
	...
     7e0:	00 00 ff ff ff ff 00 00 00 00 00 00 00 00 00 00     ................
     7f0:	00 00 00 00 00 00 80 80 80 80 c0 c0 c0 c0 e0 e0     ................
     800:	60 60 60 60 60 60 60 60 60 60 60 60 60 60 60 60     ````````````````
     810:	60 60 60 60 60 60 60 60 60 60 60 60 60 e0 e0 c0     `````````````...
     820:	c0 c0 80 80 80 00 00 00 00 00 00 00 00 00 00 00     ................
     830:	00 00 00 00 00 00 ff ff ff ff 00 00 00 00 00 00     ................
     840:	06 06 06 06 06 07 03 03 03 03 03 03 01 01 01 00     ................
	...
     874:	00 01 01 01 03 03 03 03 03 07 06 06 00 00 00 00     ................
     884:	00 00 00 00 00 00 ff ff ff ff 80 80 80 80 80 80     ................
     894:	80 80 80 80 80 80 80 80 80 80 80 80 80 80 80 80     ................
     8a4:	80 80 80 80 80 80 80 80 80 80 80 80 80 80 80 80     ................
     8b4:	80 80 80 80 80 80 80 80 80 80 80 80 80 80 80 80     ................
     8c4:	80 80 80 80 80 80 80 80 80 80 80 80 80 80 80 80     ................
     8d4:	80 80 80 80 80 80 80 80 80 80 ff ff ff ff 01 01     ................
     8e4:	01 01 01 01 01 01 01 01 01 01 01 01 01 01 01 01     ................
     8f4:	01 01 01 01 01 01 01 01 01 01 01 01 01 01 01 01     ................
     904:	01 01 01 01 01 01 01 01 01 01 01 01 01 01 01 01     ................
     914:	01 01 01 01 01 01 01 01 01 01 01 01 01 01 01 01     ................
     924:	01 01 01 01 01 01 01 01 01 01 01 01 01 01 ff ff     ................
     934:	ff ff 00 00 00 00 00 00 00 00 00 00 00 00 00 00     ................
	...
     94c:	c0 f0 f8 f8 f8 f0 00 00 00 00 00 00 00 00 00 00     ................
	...
     964:	00 e0 f0 f0 f0 f0 c0 00 00 00 00 00 00 00 00 00     ................
	...
     984:	00 00 ff ff ff ff 00 00 00 00 00 00 00 00 00 00     ................
	...
     9a0:	03 07 07 07 07 07 00 00 00 00 00 00 00 00 00 00     ................
	...
     9b8:	00 0f 1f 1f 1f 1f 0f 00 00 00 00 00 00 00 00 00     ................
	...
     9d8:	00 00 ff ff ff ff 00 00 00 00 00 00 60 60 60 60     ............````
     9e8:	60 60 60 60 60 60 60 60 60 60 60 60 60 60 60 60     ````````````````
     9f8:	60 60 60 60 60 60 60 60 60 60 60 60 60 60 60 60     ````````````````
     a08:	60 60 60 60 60 60 60 60 60 60 60 60 60 60 60 60     ````````````````
     a18:	60 60 60 60 60 60 60 60 60 60 60 60 20 00 00 00     ```````````` ...
     a28:	00 00 00 00 00 00 ff ff ff ff 00 00 00 00 00 00     ................
	...
     a80:	00 00 ff ff ff ff 80 80 80 80 80 80 80 80 80 80     ................
     a90:	80 80 80 80 80 80 80 80 80 80 80 80 80 80 80 80     ................
     aa0:	80 80 80 80 80 80 80 80 80 80 80 80 80 80 80 80     ................
     ab0:	80 80 80 80 80 80 80 80 80 80 80 80 80 80 80 80     ................
     ac0:	80 80 80 80 80 80 80 80 80 80 80 80 80 80 80 80     ................
     ad0:	80 80 80 80 80 80 ff ff ff ff 01 01 01 01 01 01     ................
     ae0:	01 01 01 01 01 01 01 01 01 01 01 01 01 01 01 01     ................
     af0:	01 01 01 01 01 01 01 01 01 01 01 01 01 01 01 01     ................
     b00:	01 01 01 01 01 01 01 01 01 01 01 01 01 01 01 01     ................
     b10:	01 01 01 01 01 01 01 01 01 01 01 01 01 01 01 01     ................
     b20:	01 01 01 01 01 01 01 01 01 01 ff ff ff ff 00 00     ................
	...
     b44:	c0 f0 f8 f8 f8 f0 00 00 00 00 00 00 00 00 00 00     ................
	...
     b5c:	00 e0 f0 f0 f0 f0 c0 00 00 00 00 00 00 00 00 00     ................
	...
     b7c:	00 00 ff ff ff ff 00 00 00 00 00 00 00 00 00 00     ................
     b8c:	00 00 00 00 c0 c0 c0 c0 80 80 00 00 03 07 07 07     ................
     b9c:	07 07 00 00 00 00 00 00 00 00 00 00 00 00 00 00     ................
     bac:	00 00 00 00 00 0f 1f 1f 1f 1f 0f 00 00 00 00 80     ................
     bbc:	80 80 80 00 00 00 00 00 00 00 00 00 00 00 00 00     ................
     bcc:	00 00 00 00 00 00 ff ff ff ff 00 00 00 00 00 00     ................
	...
     be4:	00 00 00 01 01 03 03 07 06 0e 0c 0c 1c 18 38 38     ..............88
     bf4:	30 70 60 60 e0 e0 e0 e0 e0 e0 e0 e0 60 60 60 60     0p``........````
     c04:	60 70 70 30 38 1c 1c 0e 0e 07 07 03 01 01 00 00     `pp08...........
	...
     c24:	00 00 ff ff ff ff 00 00 00 00 00 00 00 00 00 00     ................
	...
     c78:	00 00 ff ff ff ff 80 80 80 80 80 80 80 80 80 80     ................
     c88:	80 80 80 80 80 80 80 80 80 80 80 80 80 80 80 80     ................
     c98:	80 80 80 80 80 80 80 80 80 80 80 80 80 80 80 80     ................
     ca8:	80 80 80 80 80 80 80 80 80 80 80 80 80 80 80 80     ................
     cb8:	80 80 80 80 80 80 80 80 80 80 80 80 80 80 80 80     ................
     cc8:	80 80 80 80 80 80 ff ff ff ff 01 01 01 01 01 01     ................
     cd8:	01 01 01 01 01 01 01 01 01 01 01 01 01 01 01 01     ................
     ce8:	01 01 01 01 01 01 01 01 01 01 01 01 01 01 01 01     ................
     cf8:	01 01 01 01 01 01 01 01 01 01 01 01 01 01 01 01     ................
     d08:	01 01 01 01 01 01 01 01 01 01 01 01 01 01 01 01     ................
     d18:	01 01 01 01 01 01 01 01 01 01 ff ff ff ff 00 00     ................
	...
     d3c:	c0 f0 f8 f8 f8 f0 00 00 00 00 00 00 00 00 00 00     ................
	...
     d54:	00 e0 f0 f0 f0 f0 c0 00 00 00 00 00 00 00 00 00     ................
	...
     d74:	00 00 ff ff ff ff 00 00 00 00 00 00 00 00 00 00     ................
     d84:	00 00 00 00 c0 c0 c0 c0 80 80 80 00 03 07 07 07     ................
     d94:	07 07 00 00 00 00 00 00 00 00 00 00 00 00 00 00     ................
     da4:	00 00 00 00 00 0f 1f 1f 1f 1f 0f 00 00 00 00 80     ................
     db4:	80 80 80 00 00 00 00 00 00 00 00 00 00 00 00 00     ................
     dc4:	00 00 00 00 00 00 ff ff ff ff 00 00 00 00 00 00     ................
	...
     ddc:	00 01 01 03 07 07 0f 1f 1e 3e 7c 7c fc f8 f8 f8     .........>||....
     dec:	f0 70 60 60 e0 e0 e0 e0 e0 e0 e0 e0 e0 e0 e0 e0     .p``............
     dfc:	e0 f0 f0 f0 f8 fc 7c 7e 3e 3f 1f 1f 0f 0f 07 00     ......|~>?......
	...
     e1c:	00 00 ff ff ff ff 00 00 00 00 00 00 00 00 00 00     ................
	...
     e3c:	00 01 01 03 03 07 07 06 06 06 06 06 06 06 06 07     ................
     e4c:	07 03 03 03 03 01 01 01 00 00 00 00 00 00 00 00     ................
	...
     e70:	00 00 ff ff ff ff 80 80 80 80 80 80 80 80 80 80     ................
     e80:	80 80 80 80 80 80 80 80 80 80 80 80 80 80 80 80     ................
     e90:	80 80 80 80 80 80 80 80 80 80 80 80 80 80 80 80     ................
     ea0:	80 80 80 80 80 80 80 80 80 80 80 80 80 80 80 80     ................
     eb0:	80 80 80 80 80 80 80 80 80 80 80 80 80 80 80 80     ................
     ec0:	80 80 80 80 80 80 ff ff ff ff 01 01 01 01 01 01     ................
     ed0:	01 01 01 01 01 01 01 01 01 01 01 01 01 01 01 01     ................
     ee0:	01 01 01 01 01 01 01 01 01 01 01 01 01 01 01 01     ................
     ef0:	01 01 01 01 01 01 01 01 01 01 01 01 01 01 01 01     ................
     f00:	01 01 01 01 01 01 01 01 01 01 01 01 01 01 01 01     ................
     f10:	01 01 01 01 01 01 01 01 01 01 ff ff ff ff 00 00     ................
	...
     f34:	c0 f0 f8 f8 f8 f0 00 00 00 00 00 00 00 00 00 00     ................
	...
     f4c:	00 e0 f0 f0 f0 f0 c0 00 00 00 00 00 00 00 00 00     ................
	...
     f6c:	00 00 ff ff ff ff 00 00 00 00 00 00 00 00 00 00     ................
     f7c:	00 00 00 00 c0 c0 c0 c0 80 80 00 00 03 07 07 07     ................
     f8c:	07 07 00 00 00 00 00 00 00 00 00 00 00 00 00 00     ................
     f9c:	00 00 00 00 00 0f 1f 1f 1f 1f 0f 00 00 00 00 80     ................
     fac:	80 80 80 80 00 00 00 00 00 00 00 00 00 00 00 00     ................
     fbc:	00 00 00 00 00 00 ff ff ff ff 00 00 00 00 00 00     ................
     fcc:	00 00 00 00 00 00 00 03 07 07 0f 0f 1f 1f 3f 7f     ..............?.
     fdc:	fe ee cc cc 9c 98 38 38 30 70 60 60 e0 e0 e0 e0     ......880p``....
     fec:	e0 e0 e0 e0 60 60 60 60 60 70 70 30 38 1c 9c 8e     ....`````pp08...
     ffc:	ce e7 f7 7b 3f 3f 1f 0f 03 00 00 00 00 00 00 00     ...{??..........
	...
    1014:	00 00 ff ff ff ff 00 00 00 00 00 00 00 00 00 00     ................
	...
    1030:	00 00 01 01 03 03 07 07 0e 0e 0c 0c 1c 18 18 18     ................
    1040:	18 18 18 18 1c 1c 0c 0c 0c 0e 06 06 07 03 03 01     ................
    1050:	01 00 00 00 00 00 00 00 00 00 00 00 00 00 00 00     ................
	...
    1068:	00 00 ff ff ff ff 80 80 80 80 80 80 80 80 80 80     ................
    1078:	80 80 80 80 80 80 80 80 80 80 80 80 80 80 80 80     ................
    1088:	80 80 80 80 80 80 80 80 80 80 80 80 80 80 80 80     ................
    1098:	80 80 80 80 80 80 80 80 80 80 80 80 80 80 80 80     ................
    10a8:	80 80 80 80 80 80 80 80 80 80 80 80 80 80 80 80     ................
    10b8:	80 80 80 80 80 80 ff ff ff ff 01 01 01 01 01 01     ................
    10c8:	01 01 01 01 01 01 01 01 01 01 01 01 01 01 01 01     ................
    10d8:	01 01 01 01 01 01 01 01 01 01 01 01 01 01 01 01     ................
    10e8:	01 01 01 01 01 01 01 01 01 01 01 01 01 01 01 01     ................
    10f8:	01 01 01 01 01 01 01 01 01 01 01 01 01 01 01 01     ................
    1108:	01 01 01 01 01 01 01 01 01 01 ff ff ff ff 00 00     ................
	...
    112c:	c0 f0 f8 f8 f8 f0 00 00 00 00 00 00 00 00 00 00     ................
	...
    1144:	00 e0 f0 f0 f0 f0 c0 00 00 00 00 00 00 00 00 00     ................
	...
    1164:	00 00 ff ff ff ff 00 00 00 00 00 00 00 00 00 00     ................
    1174:	00 00 00 00 c0 c0 c0 c0 80 80 00 00 03 07 07 07     ................
    1184:	07 07 00 00 00 00 00 00 00 00 00 00 00 00 00 00     ................
    1194:	00 00 00 00 00 0f 1f 1f 1f 1f 0f 00 00 00 00 80     ................
    11a4:	80 80 80 80 80 00 00 00 00 00 00 00 00 00 00 00     ................
    11b4:	00 00 00 00 00 00 ff ff ff ff 00 00 00 00 00 00     ................
    11c4:	00 00 00 00 00 00 03 07 1f 3f 7d f9 e1 c3 83 07     .........?}.....
    11d4:	06 0e 0c 0c 1c 18 38 38 30 70 60 60 e0 e0 e0 e0     ......880p``....
    11e4:	e0 e0 e0 e0 60 60 60 60 60 70 70 30 38 1c 1c 0e     ....`````pp08...
    11f4:	0e 07 c7 e3 f3 ff 3f 1f 0f 03 00 00 00 00 00 00     ......?.........
	...
    120c:	00 00 ff ff ff ff 00 00 00 00 00 00 00 00 00 00     ................
    121c:	00 00 00 00 00 00 00 01 03 07 07 1f 1e 3c 78 f0     .............<x.
    122c:	e0 c0 80 80 00 00 00 00 00 00 00 00 00 00 00 00     ................
    123c:	00 00 00 80 80 80 c0 c0 e0 e0 70 7c 3f 1f 0f 03     ..........p|?...
    124c:	01 00 00 00 00 00 00 00 00 00 00 00 00 00 00 00     ................
    125c:	00 00 00 00 00 00 ff ff ff ff 80 80 80 80 80 80     ................
    126c:	80 80 80 80 80 80 80 80 80 80 80 80 80 80 80 80     ................
    127c:	80 80 80 80 81 81 81 83 83 83 87 86 86 86 86 86     ................
    128c:	86 86 87 87 83 83 83 83 83 81 81 80 80 80 80 80     ................
    129c:	80 80 80 80 80 80 80 80 80 80 80 80 80 80 80 80     ................
    12ac:	80 80 80 80 80 80 80 80 80 80 ff ff                 ............

000012b8 <font5x7>:
    12b8:	00 00 00 00 00 00 00 2f 00 00 00 07 00 07 00 14     ......./........
    12c8:	7f 14 7f 14 24 2a 7f 2a 12 32 34 08 16 26 36 49     ....$*.*.24..&6I
    12d8:	55 22 50 00 05 03 00 00 00 1c 22 41 00 00 41 22     U"P......."A..A"
    12e8:	1c 00 14 08 3e 08 14 08 08 3e 08 08 00 00 50 30     ....>....>....P0
    12f8:	00 10 10 10 10 10 00 60 60 00 00 20 10 08 04 02     .......``.. ....
    1308:	3e 51 49 45 3e 00 42 7f 40 00 42 61 51 49 46 21     >QIE>.B.@.BaQIF!
    1318:	41 45 4b 31 18 14 12 7f 10 27 45 45 45 39 3c 4a     AEK1.....'EEE9<J
    1328:	49 49 30 01 71 09 05 03 36 49 49 49 36 06 49 49     II0.q...6III6.II
    1338:	29 1e 00 36 36 00 00 00 56 36 00 00 08 14 22 41     )..66...V6...."A
    1348:	00 14 14 14 14 14 00 41 22 14 08 02 01 51 09 06     .......A"....Q..
    1358:	32 49 59 51 3e 7e 11 11 11 7e 7f 49 49 49 36 3e     2IYQ>~...~.III6>
    1368:	41 41 41 22 7f 41 41 22 1c 7f 49 49 49 41 7f 09     AAA".AA"..IIIA..
    1378:	09 09 01 3e 41 49 49 7a 7f 08 08 08 7f 00 41 7f     ...>AIIz......A.
    1388:	41 00 20 40 41 3f 01 7f 08 14 22 41 7f 40 40 40     A. @A?...."A.@@@
    1398:	40 7f 02 0c 02 7f 7f 04 08 10 7f 3e 41 41 41 3e     @..........>AAA>
    13a8:	7f 09 09 09 06 3e 41 51 21 5e 7f 09 19 29 46 46     .....>AQ!^...)FF
    13b8:	49 49 49 31 01 01 7f 01 01 3f 40 40 40 3f 1f 20     III1.....?@@@?. 
    13c8:	40 20 1f 3f 40 38 40 3f 63 14 08 14 63 07 08 70     @ .?@8@?c...c..p
    13d8:	08 07 61 51 49 45 43 00 7f 41 41 00 55 2a 55 2a     ..aQIEC..AA.U*U*
    13e8:	55 00 41 41 7f 00 04 02 01 02 04 40 40 40 40 40     U.AA.......@@@@@
    13f8:	00 01 02 04 00 20 54 54 54 78 7f 48 44 44 38 38     ..... TTTx.HDD88
    1408:	44 44 44 20 38 44 44 48 7f 38 54 54 54 18 08 7e     DDD 8DDH.8TTT..~
    1418:	09 01 02 0c 52 52 52 3e 7f 08 04 04 78 00 44 7d     ....RRR>....x.D}
    1428:	40 00 20 40 44 3d 00 7f 10 28 44 00 00 41 7f 40     @. @D=...(D..A.@
    1438:	00 7c 04 18 04 78 7c 08 04 04 78 38 44 44 44 38     .|...x|...x8DDD8
    1448:	7c 14 14 14 08 08 14 14 18 7c 7c 08 04 04 08 48     |........||....H
    1458:	54 54 54 20 04 3f 44 40 20 3c 40 40 20 7c 1c 20     TTT .?D@ <@@ |. 
    1468:	40 20 1c 3c 40 30 40 3c 44 28 10 28 44 0c 50 50     @ .<@0@<D(.(D.PP
    1478:	50 3c 44 64 54 4c 44 00 7f 3e 1c 08 08 1c 3e 7f     P<DdTLD..>....>.
    1488:	00 08 7c 7e 7c 08 10 3e 7e 3e 10 3e 3e 3e 3e 3e     ..|~|..>~>.>>>>>
    1498:	00 7f 3e 1c 08 00                                   ..>...

0000149e <__ctors_end>:
    149e:	11 24       	eor	r1, r1
    14a0:	1f be       	out	0x3f, r1	; 63
    14a2:	cf e5       	ldi	r28, 0x5F	; 95
    14a4:	d8 e0       	ldi	r29, 0x08	; 8
    14a6:	de bf       	out	0x3e, r29	; 62
    14a8:	cd bf       	out	0x3d, r28	; 61

000014aa <__do_copy_data>:
    14aa:	10 e0       	ldi	r17, 0x00	; 0
    14ac:	a0 e6       	ldi	r26, 0x60	; 96
    14ae:	b0 e0       	ldi	r27, 0x00	; 0
    14b0:	e6 e3       	ldi	r30, 0x36	; 54
    14b2:	fb e2       	ldi	r31, 0x2B	; 43
    14b4:	02 c0       	rjmp	.+4      	; 0x14ba <.do_copy_data_start>

000014b6 <.do_copy_data_loop>:
    14b6:	05 90       	lpm	r0, Z+
    14b8:	0d 92       	st	X+, r0

000014ba <.do_copy_data_start>:
    14ba:	a6 36       	cpi	r26, 0x66	; 102
    14bc:	b1 07       	cpc	r27, r17
    14be:	d9 f7       	brne	.-10     	; 0x14b6 <.do_copy_data_loop>

000014c0 <__do_clear_bss>:
    14c0:	12 e0       	ldi	r17, 0x02	; 2
    14c2:	a6 e6       	ldi	r26, 0x66	; 102
    14c4:	b0 e0       	ldi	r27, 0x00	; 0
    14c6:	01 c0       	rjmp	.+2      	; 0x14ca <.do_clear_bss_start>

000014c8 <.do_clear_bss_loop>:
    14c8:	1d 92       	st	X+, r1

000014ca <.do_clear_bss_start>:
    14ca:	a8 36       	cpi	r26, 0x68	; 104
    14cc:	b1 07       	cpc	r27, r17
    14ce:	e1 f7       	brne	.-8      	; 0x14c8 <.do_clear_bss_loop>
    14d0:	0e 94 8f 0a 	call	0x151e	; 0x151e <main>
    14d4:	0c 94 99 15 	jmp	0x2b32	; 0x2b32 <_exit>

000014d8 <__bad_interrupt>:
    14d8:	0c 94 00 00 	jmp	0	; 0x0 <__vectors>

000014dc <int_init>:
    14dc:	bb 98       	cbi	0x17, 3	; 23
    14de:	c3 9a       	sbi	0x18, 3	; 24
    14e0:	8b b7       	in	r24, 0x3b	; 59
    14e2:	80 62       	ori	r24, 0x20	; 32
    14e4:	8b bf       	out	0x3b, r24	; 59
    14e6:	84 b7       	in	r24, 0x34	; 52
    14e8:	8f 7b       	andi	r24, 0xBF	; 191
    14ea:	84 bf       	out	0x34, r24	; 52
    14ec:	08 95       	ret

000014ee <__vector_3>:
    14ee:	1f 92       	push	r1
    14f0:	0f 92       	push	r0
    14f2:	0f b6       	in	r0, 0x3f	; 63
    14f4:	0f 92       	push	r0
    14f6:	11 24       	eor	r1, r1
    14f8:	8f 93       	push	r24
    14fa:	9f 93       	push	r25
    14fc:	80 91 60 00 	lds	r24, 0x0060
    1500:	90 e0       	ldi	r25, 0x00	; 0
    1502:	88 23       	and	r24, r24
    1504:	09 f4       	brne	.+2      	; 0x1508 <__vector_3+0x1a>
    1506:	91 e0       	ldi	r25, 0x01	; 1
    1508:	90 93 60 00 	sts	0x0060, r25
    150c:	10 92 66 00 	sts	0x0066, r1
    1510:	9f 91       	pop	r25
    1512:	8f 91       	pop	r24
    1514:	0f 90       	pop	r0
    1516:	0f be       	out	0x3f, r0	; 63
    1518:	0f 90       	pop	r0
    151a:	1f 90       	pop	r1
    151c:	18 95       	reti

0000151e <main>:
    151e:	1f 93       	push	r17
    1520:	0e 94 6e 0a 	call	0x14dc	; 0x14dc <int_init>
    1524:	78 94       	sei
    1526:	0e 94 02 13 	call	0x2604	; 0x2604 <lcd_ninit>
    152a:	8a e5       	ldi	r24, 0x5A	; 90
    152c:	0e 94 f1 12 	call	0x25e2	; 0x25e2 <lcd_contrast>
    1530:	0e 94 1c 14 	call	0x2838	; 0x2838 <lcd_init>
    1534:	84 e5       	ldi	r24, 0x54	; 84
    1536:	90 e0       	ldi	r25, 0x00	; 0
    1538:	0e 94 c2 13 	call	0x2784	; 0x2784 <lcd_str_P>
    153c:	11 e0       	ldi	r17, 0x01	; 1
    153e:	0e 94 21 0f 	call	0x1e42	; 0x1e42 <aktualizacja>
    1542:	0e 94 ed 0e 	call	0x1dda	; 0x1dda <odczytgodzinyLCD>
    1546:	80 91 60 00 	lds	r24, 0x0060
    154a:	88 23       	and	r24, r24
    154c:	69 f0       	breq	.+26     	; 0x1568 <main+0x4a>
    154e:	80 91 66 00 	lds	r24, 0x0066
    1552:	88 23       	and	r24, r24
    1554:	31 f4       	brne	.+12     	; 0x1562 <main+0x44>
    1556:	0e 94 49 12 	call	0x2492	; 0x2492 <lcd_clear>
    155a:	0e 94 40 13 	call	0x2680	; 0x2680 <oproznijbufor>
    155e:	10 93 66 00 	sts	0x0066, r17
    1562:	0e 94 59 0e 	call	0x1cb2	; 0x1cb2 <odczytgodzinyNokia>
    1566:	eb cf       	rjmp	.-42     	; 0x153e <main+0x20>
    1568:	0e 94 d2 0a 	call	0x15a4	; 0x15a4 <odczytgodzinyNokiaanalog>
    156c:	e8 cf       	rjmp	.-48     	; 0x153e <main+0x20>

0000156e <dec2bcd>:
    156e:	48 2f       	mov	r20, r24
    1570:	6a e0       	ldi	r22, 0x0A	; 10
    1572:	0e 94 24 15 	call	0x2a48	; 0x2a48 <__udivmodqi4>
    1576:	28 2f       	mov	r18, r24
    1578:	30 e0       	ldi	r19, 0x00	; 0
    157a:	84 e0       	ldi	r24, 0x04	; 4
    157c:	22 0f       	add	r18, r18
    157e:	33 1f       	adc	r19, r19
    1580:	8a 95       	dec	r24
    1582:	e1 f7       	brne	.-8      	; 0x157c <dec2bcd+0xe>
    1584:	84 2f       	mov	r24, r20
    1586:	0e 94 24 15 	call	0x2a48	; 0x2a48 <__udivmodqi4>
    158a:	89 2f       	mov	r24, r25
    158c:	82 2b       	or	r24, r18
    158e:	08 95       	ret

00001590 <bcd2dec>:
    1590:	28 2f       	mov	r18, r24
    1592:	22 95       	swap	r18
    1594:	2f 70       	andi	r18, 0x0F	; 15
    1596:	9a e0       	ldi	r25, 0x0A	; 10
    1598:	29 9f       	mul	r18, r25
    159a:	90 01       	movw	r18, r0
    159c:	11 24       	eor	r1, r1
    159e:	8f 70       	andi	r24, 0x0F	; 15
    15a0:	82 0f       	add	r24, r18
    15a2:	08 95       	ret

000015a4 <odczytgodzinyNokiaanalog>:
    15a4:	0f 93       	push	r16
    15a6:	80 91 65 02 	lds	r24, 0x0265
    15aa:	88 23       	and	r24, r24
    15ac:	59 f4       	brne	.+22     	; 0x15c4 <odczytgodzinyNokiaanalog+0x20>
    15ae:	0e 94 2d 13 	call	0x265a	; 0x265a <tarcza>
    15b2:	8a e2       	ldi	r24, 0x2A	; 42
    15b4:	6a e2       	ldi	r22, 0x2A	; 42
    15b6:	42 e0       	ldi	r20, 0x02	; 2
    15b8:	28 e1       	ldi	r18, 0x18	; 24
    15ba:	01 e0       	ldi	r16, 0x01	; 1
    15bc:	0e 94 dc 0f 	call	0x1fb8	; 0x1fb8 <LcdLine>
    15c0:	0e 94 61 12 	call	0x24c2	; 0x24c2 <LcdUpdate>
    15c4:	80 91 65 02 	lds	r24, 0x0265
    15c8:	81 30       	cpi	r24, 0x01	; 1
    15ca:	59 f4       	brne	.+22     	; 0x15e2 <odczytgodzinyNokiaanalog+0x3e>
    15cc:	0e 94 2d 13 	call	0x265a	; 0x265a <tarcza>
    15d0:	8c e2       	ldi	r24, 0x2C	; 44
    15d2:	6a e2       	ldi	r22, 0x2A	; 42
    15d4:	42 e0       	ldi	r20, 0x02	; 2
    15d6:	28 e1       	ldi	r18, 0x18	; 24
    15d8:	01 e0       	ldi	r16, 0x01	; 1
    15da:	0e 94 dc 0f 	call	0x1fb8	; 0x1fb8 <LcdLine>
    15de:	0e 94 61 12 	call	0x24c2	; 0x24c2 <LcdUpdate>
    15e2:	80 91 65 02 	lds	r24, 0x0265
    15e6:	82 30       	cpi	r24, 0x02	; 2
    15e8:	59 f4       	brne	.+22     	; 0x1600 <odczytgodzinyNokiaanalog+0x5c>
    15ea:	0e 94 2d 13 	call	0x265a	; 0x265a <tarcza>
    15ee:	8e e2       	ldi	r24, 0x2E	; 46
    15f0:	6a e2       	ldi	r22, 0x2A	; 42
    15f2:	43 e0       	ldi	r20, 0x03	; 3
    15f4:	28 e1       	ldi	r18, 0x18	; 24
    15f6:	01 e0       	ldi	r16, 0x01	; 1
    15f8:	0e 94 dc 0f 	call	0x1fb8	; 0x1fb8 <LcdLine>
    15fc:	0e 94 61 12 	call	0x24c2	; 0x24c2 <LcdUpdate>
    1600:	80 91 65 02 	lds	r24, 0x0265
    1604:	83 30       	cpi	r24, 0x03	; 3
    1606:	59 f4       	brne	.+22     	; 0x161e <odczytgodzinyNokiaanalog+0x7a>
    1608:	0e 94 2d 13 	call	0x265a	; 0x265a <tarcza>
    160c:	80 e3       	ldi	r24, 0x30	; 48
    160e:	6a e2       	ldi	r22, 0x2A	; 42
    1610:	43 e0       	ldi	r20, 0x03	; 3
    1612:	28 e1       	ldi	r18, 0x18	; 24
    1614:	01 e0       	ldi	r16, 0x01	; 1
    1616:	0e 94 dc 0f 	call	0x1fb8	; 0x1fb8 <LcdLine>
    161a:	0e 94 61 12 	call	0x24c2	; 0x24c2 <LcdUpdate>
    161e:	80 91 65 02 	lds	r24, 0x0265
    1622:	84 30       	cpi	r24, 0x04	; 4
    1624:	59 f4       	brne	.+22     	; 0x163c <odczytgodzinyNokiaanalog+0x98>
    1626:	0e 94 2d 13 	call	0x265a	; 0x265a <tarcza>
    162a:	82 e3       	ldi	r24, 0x32	; 50
    162c:	6a e2       	ldi	r22, 0x2A	; 42
    162e:	44 e0       	ldi	r20, 0x04	; 4
    1630:	28 e1       	ldi	r18, 0x18	; 24
    1632:	01 e0       	ldi	r16, 0x01	; 1
    1634:	0e 94 dc 0f 	call	0x1fb8	; 0x1fb8 <LcdLine>
    1638:	0e 94 61 12 	call	0x24c2	; 0x24c2 <LcdUpdate>
    163c:	80 91 65 02 	lds	r24, 0x0265
    1640:	85 30       	cpi	r24, 0x05	; 5
    1642:	59 f4       	brne	.+22     	; 0x165a <odczytgodzinyNokiaanalog+0xb6>
    1644:	0e 94 2d 13 	call	0x265a	; 0x265a <tarcza>
    1648:	84 e3       	ldi	r24, 0x34	; 52
    164a:	6a e2       	ldi	r22, 0x2A	; 42
    164c:	44 e0       	ldi	r20, 0x04	; 4
    164e:	28 e1       	ldi	r18, 0x18	; 24
    1650:	01 e0       	ldi	r16, 0x01	; 1
    1652:	0e 94 dc 0f 	call	0x1fb8	; 0x1fb8 <LcdLine>
    1656:	0e 94 61 12 	call	0x24c2	; 0x24c2 <LcdUpdate>
    165a:	80 91 65 02 	lds	r24, 0x0265
    165e:	86 30       	cpi	r24, 0x06	; 6
    1660:	59 f4       	brne	.+22     	; 0x1678 <odczytgodzinyNokiaanalog+0xd4>
    1662:	0e 94 2d 13 	call	0x265a	; 0x265a <tarcza>
    1666:	85 e3       	ldi	r24, 0x35	; 53
    1668:	6a e2       	ldi	r22, 0x2A	; 42
    166a:	45 e0       	ldi	r20, 0x05	; 5
    166c:	28 e1       	ldi	r18, 0x18	; 24
    166e:	01 e0       	ldi	r16, 0x01	; 1
    1670:	0e 94 dc 0f 	call	0x1fb8	; 0x1fb8 <LcdLine>
    1674:	0e 94 61 12 	call	0x24c2	; 0x24c2 <LcdUpdate>
    1678:	80 91 65 02 	lds	r24, 0x0265
    167c:	87 30       	cpi	r24, 0x07	; 7
    167e:	59 f4       	brne	.+22     	; 0x1696 <odczytgodzinyNokiaanalog+0xf2>
    1680:	0e 94 2d 13 	call	0x265a	; 0x265a <tarcza>
    1684:	87 e3       	ldi	r24, 0x37	; 55
    1686:	6a e2       	ldi	r22, 0x2A	; 42
    1688:	47 e0       	ldi	r20, 0x07	; 7
    168a:	28 e1       	ldi	r18, 0x18	; 24
    168c:	01 e0       	ldi	r16, 0x01	; 1
    168e:	0e 94 dc 0f 	call	0x1fb8	; 0x1fb8 <LcdLine>
    1692:	0e 94 61 12 	call	0x24c2	; 0x24c2 <LcdUpdate>
    1696:	80 91 65 02 	lds	r24, 0x0265
    169a:	88 30       	cpi	r24, 0x08	; 8
    169c:	59 f4       	brne	.+22     	; 0x16b4 <odczytgodzinyNokiaanalog+0x110>
    169e:	0e 94 2d 13 	call	0x265a	; 0x265a <tarcza>
    16a2:	8a e3       	ldi	r24, 0x3A	; 58
    16a4:	6a e2       	ldi	r22, 0x2A	; 42
    16a6:	49 e0       	ldi	r20, 0x09	; 9
    16a8:	28 e1       	ldi	r18, 0x18	; 24
    16aa:	01 e0       	ldi	r16, 0x01	; 1
    16ac:	0e 94 dc 0f 	call	0x1fb8	; 0x1fb8 <LcdLine>
    16b0:	0e 94 61 12 	call	0x24c2	; 0x24c2 <LcdUpdate>
    16b4:	80 91 65 02 	lds	r24, 0x0265
    16b8:	89 30       	cpi	r24, 0x09	; 9
    16ba:	59 f4       	brne	.+22     	; 0x16d2 <odczytgodzinyNokiaanalog+0x12e>
    16bc:	0e 94 2d 13 	call	0x265a	; 0x265a <tarcza>
    16c0:	8c e3       	ldi	r24, 0x3C	; 60
    16c2:	6a e2       	ldi	r22, 0x2A	; 42
    16c4:	4b e0       	ldi	r20, 0x0B	; 11
    16c6:	28 e1       	ldi	r18, 0x18	; 24
    16c8:	01 e0       	ldi	r16, 0x01	; 1
    16ca:	0e 94 dc 0f 	call	0x1fb8	; 0x1fb8 <LcdLine>
    16ce:	0e 94 61 12 	call	0x24c2	; 0x24c2 <LcdUpdate>
    16d2:	80 91 65 02 	lds	r24, 0x0265
    16d6:	8a 30       	cpi	r24, 0x0A	; 10
    16d8:	59 f4       	brne	.+22     	; 0x16f0 <odczytgodzinyNokiaanalog+0x14c>
    16da:	0e 94 2d 13 	call	0x265a	; 0x265a <tarcza>
    16de:	8d e3       	ldi	r24, 0x3D	; 61
    16e0:	6a e2       	ldi	r22, 0x2A	; 42
    16e2:	4d e0       	ldi	r20, 0x0D	; 13
    16e4:	28 e1       	ldi	r18, 0x18	; 24
    16e6:	01 e0       	ldi	r16, 0x01	; 1
    16e8:	0e 94 dc 0f 	call	0x1fb8	; 0x1fb8 <LcdLine>
    16ec:	0e 94 61 12 	call	0x24c2	; 0x24c2 <LcdUpdate>
    16f0:	80 91 65 02 	lds	r24, 0x0265
    16f4:	8b 30       	cpi	r24, 0x0B	; 11
    16f6:	59 f4       	brne	.+22     	; 0x170e <odczytgodzinyNokiaanalog+0x16a>
    16f8:	0e 94 2d 13 	call	0x265a	; 0x265a <tarcza>
    16fc:	8e e3       	ldi	r24, 0x3E	; 62
    16fe:	6a e2       	ldi	r22, 0x2A	; 42
    1700:	4f e0       	ldi	r20, 0x0F	; 15
    1702:	28 e1       	ldi	r18, 0x18	; 24
    1704:	01 e0       	ldi	r16, 0x01	; 1
    1706:	0e 94 dc 0f 	call	0x1fb8	; 0x1fb8 <LcdLine>
    170a:	0e 94 61 12 	call	0x24c2	; 0x24c2 <LcdUpdate>
    170e:	80 91 65 02 	lds	r24, 0x0265
    1712:	8c 30       	cpi	r24, 0x0C	; 12
    1714:	59 f4       	brne	.+22     	; 0x172c <odczytgodzinyNokiaanalog+0x188>
    1716:	0e 94 2d 13 	call	0x265a	; 0x265a <tarcza>
    171a:	8f e3       	ldi	r24, 0x3F	; 63
    171c:	6a e2       	ldi	r22, 0x2A	; 42
    171e:	41 e1       	ldi	r20, 0x11	; 17
    1720:	28 e1       	ldi	r18, 0x18	; 24
    1722:	01 e0       	ldi	r16, 0x01	; 1
    1724:	0e 94 dc 0f 	call	0x1fb8	; 0x1fb8 <LcdLine>
    1728:	0e 94 61 12 	call	0x24c2	; 0x24c2 <LcdUpdate>
    172c:	80 91 65 02 	lds	r24, 0x0265
    1730:	8d 30       	cpi	r24, 0x0D	; 13
    1732:	59 f4       	brne	.+22     	; 0x174a <odczytgodzinyNokiaanalog+0x1a6>
    1734:	0e 94 2d 13 	call	0x265a	; 0x265a <tarcza>
    1738:	80 e4       	ldi	r24, 0x40	; 64
    173a:	6a e2       	ldi	r22, 0x2A	; 42
    173c:	43 e1       	ldi	r20, 0x13	; 19
    173e:	28 e1       	ldi	r18, 0x18	; 24
    1740:	01 e0       	ldi	r16, 0x01	; 1
    1742:	0e 94 dc 0f 	call	0x1fb8	; 0x1fb8 <LcdLine>
    1746:	0e 94 61 12 	call	0x24c2	; 0x24c2 <LcdUpdate>
    174a:	80 91 65 02 	lds	r24, 0x0265
    174e:	8e 30       	cpi	r24, 0x0E	; 14
    1750:	59 f4       	brne	.+22     	; 0x1768 <odczytgodzinyNokiaanalog+0x1c4>
    1752:	0e 94 2d 13 	call	0x265a	; 0x265a <tarcza>
    1756:	80 e4       	ldi	r24, 0x40	; 64
    1758:	6a e2       	ldi	r22, 0x2A	; 42
    175a:	45 e1       	ldi	r20, 0x15	; 21
    175c:	28 e1       	ldi	r18, 0x18	; 24
    175e:	01 e0       	ldi	r16, 0x01	; 1
    1760:	0e 94 dc 0f 	call	0x1fb8	; 0x1fb8 <LcdLine>
    1764:	0e 94 61 12 	call	0x24c2	; 0x24c2 <LcdUpdate>
    1768:	80 91 65 02 	lds	r24, 0x0265
    176c:	8f 30       	cpi	r24, 0x0F	; 15
    176e:	59 f4       	brne	.+22     	; 0x1786 <odczytgodzinyNokiaanalog+0x1e2>
    1770:	0e 94 2d 13 	call	0x265a	; 0x265a <tarcza>
    1774:	81 e4       	ldi	r24, 0x41	; 65
    1776:	6a e2       	ldi	r22, 0x2A	; 42
    1778:	48 e1       	ldi	r20, 0x18	; 24
    177a:	28 e1       	ldi	r18, 0x18	; 24
    177c:	01 e0       	ldi	r16, 0x01	; 1
    177e:	0e 94 dc 0f 	call	0x1fb8	; 0x1fb8 <LcdLine>
    1782:	0e 94 61 12 	call	0x24c2	; 0x24c2 <LcdUpdate>
    1786:	80 91 65 02 	lds	r24, 0x0265
    178a:	80 31       	cpi	r24, 0x10	; 16
    178c:	59 f4       	brne	.+22     	; 0x17a4 <odczytgodzinyNokiaanalog+0x200>
    178e:	0e 94 2d 13 	call	0x265a	; 0x265a <tarcza>
    1792:	81 e4       	ldi	r24, 0x41	; 65
    1794:	6a e2       	ldi	r22, 0x2A	; 42
    1796:	49 e1       	ldi	r20, 0x19	; 25
    1798:	28 e1       	ldi	r18, 0x18	; 24
    179a:	01 e0       	ldi	r16, 0x01	; 1
    179c:	0e 94 dc 0f 	call	0x1fb8	; 0x1fb8 <LcdLine>
    17a0:	0e 94 61 12 	call	0x24c2	; 0x24c2 <LcdUpdate>
    17a4:	80 91 65 02 	lds	r24, 0x0265
    17a8:	81 31       	cpi	r24, 0x11	; 17
    17aa:	59 f4       	brne	.+22     	; 0x17c2 <odczytgodzinyNokiaanalog+0x21e>
    17ac:	0e 94 2d 13 	call	0x265a	; 0x265a <tarcza>
    17b0:	80 e4       	ldi	r24, 0x40	; 64
    17b2:	6a e2       	ldi	r22, 0x2A	; 42
    17b4:	4e e1       	ldi	r20, 0x1E	; 30
    17b6:	28 e1       	ldi	r18, 0x18	; 24
    17b8:	01 e0       	ldi	r16, 0x01	; 1
    17ba:	0e 94 dc 0f 	call	0x1fb8	; 0x1fb8 <LcdLine>
    17be:	0e 94 61 12 	call	0x24c2	; 0x24c2 <LcdUpdate>
    17c2:	80 91 65 02 	lds	r24, 0x0265
    17c6:	82 31       	cpi	r24, 0x12	; 18
    17c8:	59 f4       	brne	.+22     	; 0x17e0 <odczytgodzinyNokiaanalog+0x23c>
    17ca:	0e 94 2d 13 	call	0x265a	; 0x265a <tarcza>
    17ce:	8f e3       	ldi	r24, 0x3F	; 63
    17d0:	6a e2       	ldi	r22, 0x2A	; 42
    17d2:	41 e2       	ldi	r20, 0x21	; 33
    17d4:	28 e1       	ldi	r18, 0x18	; 24
    17d6:	01 e0       	ldi	r16, 0x01	; 1
    17d8:	0e 94 dc 0f 	call	0x1fb8	; 0x1fb8 <LcdLine>
    17dc:	0e 94 61 12 	call	0x24c2	; 0x24c2 <LcdUpdate>
    17e0:	80 91 65 02 	lds	r24, 0x0265
    17e4:	83 31       	cpi	r24, 0x13	; 19
    17e6:	59 f4       	brne	.+22     	; 0x17fe <odczytgodzinyNokiaanalog+0x25a>
    17e8:	0e 94 2d 13 	call	0x265a	; 0x265a <tarcza>
    17ec:	8d e3       	ldi	r24, 0x3D	; 61
    17ee:	6a e2       	ldi	r22, 0x2A	; 42
    17f0:	44 e2       	ldi	r20, 0x24	; 36
    17f2:	28 e1       	ldi	r18, 0x18	; 24
    17f4:	01 e0       	ldi	r16, 0x01	; 1
    17f6:	0e 94 dc 0f 	call	0x1fb8	; 0x1fb8 <LcdLine>
    17fa:	0e 94 61 12 	call	0x24c2	; 0x24c2 <LcdUpdate>
    17fe:	80 91 65 02 	lds	r24, 0x0265
    1802:	84 31       	cpi	r24, 0x14	; 20
    1804:	59 f4       	brne	.+22     	; 0x181c <odczytgodzinyNokiaanalog+0x278>
    1806:	0e 94 2d 13 	call	0x265a	; 0x265a <tarcza>
    180a:	8c e3       	ldi	r24, 0x3C	; 60
    180c:	6a e2       	ldi	r22, 0x2A	; 42
    180e:	46 e2       	ldi	r20, 0x26	; 38
    1810:	28 e1       	ldi	r18, 0x18	; 24
    1812:	01 e0       	ldi	r16, 0x01	; 1
    1814:	0e 94 dc 0f 	call	0x1fb8	; 0x1fb8 <LcdLine>
    1818:	0e 94 61 12 	call	0x24c2	; 0x24c2 <LcdUpdate>
    181c:	80 91 65 02 	lds	r24, 0x0265
    1820:	85 31       	cpi	r24, 0x15	; 21
    1822:	59 f4       	brne	.+22     	; 0x183a <odczytgodzinyNokiaanalog+0x296>
    1824:	0e 94 2d 13 	call	0x265a	; 0x265a <tarcza>
    1828:	8b e3       	ldi	r24, 0x3B	; 59
    182a:	6a e2       	ldi	r22, 0x2A	; 42
    182c:	47 e2       	ldi	r20, 0x27	; 39
    182e:	28 e1       	ldi	r18, 0x18	; 24
    1830:	01 e0       	ldi	r16, 0x01	; 1
    1832:	0e 94 dc 0f 	call	0x1fb8	; 0x1fb8 <LcdLine>
    1836:	0e 94 61 12 	call	0x24c2	; 0x24c2 <LcdUpdate>
    183a:	80 91 65 02 	lds	r24, 0x0265
    183e:	86 31       	cpi	r24, 0x16	; 22
    1840:	59 f4       	brne	.+22     	; 0x1858 <odczytgodzinyNokiaanalog+0x2b4>
    1842:	0e 94 2d 13 	call	0x265a	; 0x265a <tarcza>
    1846:	8a e3       	ldi	r24, 0x3A	; 58
    1848:	6a e2       	ldi	r22, 0x2A	; 42
    184a:	48 e2       	ldi	r20, 0x28	; 40
    184c:	28 e1       	ldi	r18, 0x18	; 24
    184e:	01 e0       	ldi	r16, 0x01	; 1
    1850:	0e 94 dc 0f 	call	0x1fb8	; 0x1fb8 <LcdLine>
    1854:	0e 94 61 12 	call	0x24c2	; 0x24c2 <LcdUpdate>
    1858:	80 91 65 02 	lds	r24, 0x0265
    185c:	87 31       	cpi	r24, 0x17	; 23
    185e:	59 f4       	brne	.+22     	; 0x1876 <odczytgodzinyNokiaanalog+0x2d2>
    1860:	0e 94 2d 13 	call	0x265a	; 0x265a <tarcza>
    1864:	88 e3       	ldi	r24, 0x38	; 56
    1866:	6a e2       	ldi	r22, 0x2A	; 42
    1868:	4a e2       	ldi	r20, 0x2A	; 42
    186a:	28 e1       	ldi	r18, 0x18	; 24
    186c:	01 e0       	ldi	r16, 0x01	; 1
    186e:	0e 94 dc 0f 	call	0x1fb8	; 0x1fb8 <LcdLine>
    1872:	0e 94 61 12 	call	0x24c2	; 0x24c2 <LcdUpdate>
    1876:	80 91 65 02 	lds	r24, 0x0265
    187a:	88 31       	cpi	r24, 0x18	; 24
    187c:	59 f4       	brne	.+22     	; 0x1894 <odczytgodzinyNokiaanalog+0x2f0>
    187e:	0e 94 2d 13 	call	0x265a	; 0x265a <tarcza>
    1882:	86 e3       	ldi	r24, 0x36	; 54
    1884:	6a e2       	ldi	r22, 0x2A	; 42
    1886:	4b e2       	ldi	r20, 0x2B	; 43
    1888:	28 e1       	ldi	r18, 0x18	; 24
    188a:	01 e0       	ldi	r16, 0x01	; 1
    188c:	0e 94 dc 0f 	call	0x1fb8	; 0x1fb8 <LcdLine>
    1890:	0e 94 61 12 	call	0x24c2	; 0x24c2 <LcdUpdate>
    1894:	80 91 65 02 	lds	r24, 0x0265
    1898:	89 31       	cpi	r24, 0x19	; 25
    189a:	59 f4       	brne	.+22     	; 0x18b2 <odczytgodzinyNokiaanalog+0x30e>
    189c:	0e 94 2d 13 	call	0x265a	; 0x265a <tarcza>
    18a0:	84 e3       	ldi	r24, 0x34	; 52
    18a2:	6a e2       	ldi	r22, 0x2A	; 42
    18a4:	4d e2       	ldi	r20, 0x2D	; 45
    18a6:	28 e1       	ldi	r18, 0x18	; 24
    18a8:	01 e0       	ldi	r16, 0x01	; 1
    18aa:	0e 94 dc 0f 	call	0x1fb8	; 0x1fb8 <LcdLine>
    18ae:	0e 94 61 12 	call	0x24c2	; 0x24c2 <LcdUpdate>
    18b2:	80 91 65 02 	lds	r24, 0x0265
    18b6:	8a 31       	cpi	r24, 0x1A	; 26
    18b8:	59 f4       	brne	.+22     	; 0x18d0 <odczytgodzinyNokiaanalog+0x32c>
    18ba:	0e 94 2d 13 	call	0x265a	; 0x265a <tarcza>
    18be:	82 e3       	ldi	r24, 0x32	; 50
    18c0:	6a e2       	ldi	r22, 0x2A	; 42
    18c2:	4d e2       	ldi	r20, 0x2D	; 45
    18c4:	28 e1       	ldi	r18, 0x18	; 24
    18c6:	01 e0       	ldi	r16, 0x01	; 1
    18c8:	0e 94 dc 0f 	call	0x1fb8	; 0x1fb8 <LcdLine>
    18cc:	0e 94 61 12 	call	0x24c2	; 0x24c2 <LcdUpdate>
    18d0:	80 91 65 02 	lds	r24, 0x0265
    18d4:	8b 31       	cpi	r24, 0x1B	; 27
    18d6:	59 f4       	brne	.+22     	; 0x18ee <odczytgodzinyNokiaanalog+0x34a>
    18d8:	0e 94 2d 13 	call	0x265a	; 0x265a <tarcza>
    18dc:	80 e3       	ldi	r24, 0x30	; 48
    18de:	6a e2       	ldi	r22, 0x2A	; 42
    18e0:	4e e2       	ldi	r20, 0x2E	; 46
    18e2:	28 e1       	ldi	r18, 0x18	; 24
    18e4:	01 e0       	ldi	r16, 0x01	; 1
    18e6:	0e 94 dc 0f 	call	0x1fb8	; 0x1fb8 <LcdLine>
    18ea:	0e 94 61 12 	call	0x24c2	; 0x24c2 <LcdUpdate>
    18ee:	80 91 65 02 	lds	r24, 0x0265
    18f2:	8c 31       	cpi	r24, 0x1C	; 28
    18f4:	59 f4       	brne	.+22     	; 0x190c <odczytgodzinyNokiaanalog+0x368>
    18f6:	0e 94 2d 13 	call	0x265a	; 0x265a <tarcza>
    18fa:	8e e2       	ldi	r24, 0x2E	; 46
    18fc:	6a e2       	ldi	r22, 0x2A	; 42
    18fe:	4e e2       	ldi	r20, 0x2E	; 46
    1900:	28 e1       	ldi	r18, 0x18	; 24
    1902:	01 e0       	ldi	r16, 0x01	; 1
    1904:	0e 94 dc 0f 	call	0x1fb8	; 0x1fb8 <LcdLine>
    1908:	0e 94 61 12 	call	0x24c2	; 0x24c2 <LcdUpdate>
    190c:	80 91 65 02 	lds	r24, 0x0265
    1910:	8d 31       	cpi	r24, 0x1D	; 29
    1912:	59 f4       	brne	.+22     	; 0x192a <odczytgodzinyNokiaanalog+0x386>
    1914:	0e 94 2d 13 	call	0x265a	; 0x265a <tarcza>
    1918:	8c e2       	ldi	r24, 0x2C	; 44
    191a:	6a e2       	ldi	r22, 0x2A	; 42
    191c:	4e e2       	ldi	r20, 0x2E	; 46
    191e:	28 e1       	ldi	r18, 0x18	; 24
    1920:	01 e0       	ldi	r16, 0x01	; 1
    1922:	0e 94 dc 0f 	call	0x1fb8	; 0x1fb8 <LcdLine>
    1926:	0e 94 61 12 	call	0x24c2	; 0x24c2 <LcdUpdate>
    192a:	80 91 65 02 	lds	r24, 0x0265
    192e:	8e 31       	cpi	r24, 0x1E	; 30
    1930:	59 f4       	brne	.+22     	; 0x1948 <odczytgodzinyNokiaanalog+0x3a4>
    1932:	0e 94 2d 13 	call	0x265a	; 0x265a <tarcza>
    1936:	8a e2       	ldi	r24, 0x2A	; 42
    1938:	6a e2       	ldi	r22, 0x2A	; 42
    193a:	49 e1       	ldi	r20, 0x19	; 25
    193c:	2f e2       	ldi	r18, 0x2F	; 47
    193e:	01 e0       	ldi	r16, 0x01	; 1
    1940:	0e 94 dc 0f 	call	0x1fb8	; 0x1fb8 <LcdLine>
    1944:	0e 94 61 12 	call	0x24c2	; 0x24c2 <LcdUpdate>
    1948:	80 91 65 02 	lds	r24, 0x0265
    194c:	8f 31       	cpi	r24, 0x1F	; 31
    194e:	59 f4       	brne	.+22     	; 0x1966 <odczytgodzinyNokiaanalog+0x3c2>
    1950:	0e 94 2d 13 	call	0x265a	; 0x265a <tarcza>
    1954:	88 e2       	ldi	r24, 0x28	; 40
    1956:	6a e2       	ldi	r22, 0x2A	; 42
    1958:	4e e2       	ldi	r20, 0x2E	; 46
    195a:	28 e1       	ldi	r18, 0x18	; 24
    195c:	01 e0       	ldi	r16, 0x01	; 1
    195e:	0e 94 dc 0f 	call	0x1fb8	; 0x1fb8 <LcdLine>
    1962:	0e 94 61 12 	call	0x24c2	; 0x24c2 <LcdUpdate>
    1966:	80 91 65 02 	lds	r24, 0x0265
    196a:	80 32       	cpi	r24, 0x20	; 32
    196c:	59 f4       	brne	.+22     	; 0x1984 <odczytgodzinyNokiaanalog+0x3e0>
    196e:	0e 94 2d 13 	call	0x265a	; 0x265a <tarcza>
    1972:	86 e2       	ldi	r24, 0x26	; 38
    1974:	6a e2       	ldi	r22, 0x2A	; 42
    1976:	4e e2       	ldi	r20, 0x2E	; 46
    1978:	28 e1       	ldi	r18, 0x18	; 24
    197a:	01 e0       	ldi	r16, 0x01	; 1
    197c:	0e 94 dc 0f 	call	0x1fb8	; 0x1fb8 <LcdLine>
    1980:	0e 94 61 12 	call	0x24c2	; 0x24c2 <LcdUpdate>
    1984:	80 91 65 02 	lds	r24, 0x0265
    1988:	81 32       	cpi	r24, 0x21	; 33
    198a:	59 f4       	brne	.+22     	; 0x19a2 <odczytgodzinyNokiaanalog+0x3fe>
    198c:	0e 94 2d 13 	call	0x265a	; 0x265a <tarcza>
    1990:	84 e2       	ldi	r24, 0x24	; 36
    1992:	6a e2       	ldi	r22, 0x2A	; 42
    1994:	4e e2       	ldi	r20, 0x2E	; 46
    1996:	28 e1       	ldi	r18, 0x18	; 24
    1998:	01 e0       	ldi	r16, 0x01	; 1
    199a:	0e 94 dc 0f 	call	0x1fb8	; 0x1fb8 <LcdLine>
    199e:	0e 94 61 12 	call	0x24c2	; 0x24c2 <LcdUpdate>
    19a2:	80 91 65 02 	lds	r24, 0x0265
    19a6:	82 32       	cpi	r24, 0x22	; 34
    19a8:	59 f4       	brne	.+22     	; 0x19c0 <odczytgodzinyNokiaanalog+0x41c>
    19aa:	0e 94 2d 13 	call	0x265a	; 0x265a <tarcza>
    19ae:	82 e2       	ldi	r24, 0x22	; 34
    19b0:	6a e2       	ldi	r22, 0x2A	; 42
    19b2:	4d e2       	ldi	r20, 0x2D	; 45
    19b4:	28 e1       	ldi	r18, 0x18	; 24
    19b6:	01 e0       	ldi	r16, 0x01	; 1
    19b8:	0e 94 dc 0f 	call	0x1fb8	; 0x1fb8 <LcdLine>
    19bc:	0e 94 61 12 	call	0x24c2	; 0x24c2 <LcdUpdate>
    19c0:	80 91 65 02 	lds	r24, 0x0265
    19c4:	83 32       	cpi	r24, 0x23	; 35
    19c6:	59 f4       	brne	.+22     	; 0x19de <odczytgodzinyNokiaanalog+0x43a>
    19c8:	0e 94 2d 13 	call	0x265a	; 0x265a <tarcza>
    19cc:	80 e2       	ldi	r24, 0x20	; 32
    19ce:	6a e2       	ldi	r22, 0x2A	; 42
    19d0:	4d e2       	ldi	r20, 0x2D	; 45
    19d2:	28 e1       	ldi	r18, 0x18	; 24
    19d4:	01 e0       	ldi	r16, 0x01	; 1
    19d6:	0e 94 dc 0f 	call	0x1fb8	; 0x1fb8 <LcdLine>
    19da:	0e 94 61 12 	call	0x24c2	; 0x24c2 <LcdUpdate>
    19de:	80 91 65 02 	lds	r24, 0x0265
    19e2:	84 32       	cpi	r24, 0x24	; 36
    19e4:	59 f4       	brne	.+22     	; 0x19fc <odczytgodzinyNokiaanalog+0x458>
    19e6:	0e 94 2d 13 	call	0x265a	; 0x265a <tarcza>
    19ea:	8e e1       	ldi	r24, 0x1E	; 30
    19ec:	6a e2       	ldi	r22, 0x2A	; 42
    19ee:	4b e2       	ldi	r20, 0x2B	; 43
    19f0:	28 e1       	ldi	r18, 0x18	; 24
    19f2:	01 e0       	ldi	r16, 0x01	; 1
    19f4:	0e 94 dc 0f 	call	0x1fb8	; 0x1fb8 <LcdLine>
    19f8:	0e 94 61 12 	call	0x24c2	; 0x24c2 <LcdUpdate>
    19fc:	80 91 65 02 	lds	r24, 0x0265
    1a00:	85 32       	cpi	r24, 0x25	; 37
    1a02:	59 f4       	brne	.+22     	; 0x1a1a <odczytgodzinyNokiaanalog+0x476>
    1a04:	0e 94 2d 13 	call	0x265a	; 0x265a <tarcza>
    1a08:	8c e1       	ldi	r24, 0x1C	; 28
    1a0a:	6a e2       	ldi	r22, 0x2A	; 42
    1a0c:	4a e2       	ldi	r20, 0x2A	; 42
    1a0e:	28 e1       	ldi	r18, 0x18	; 24
    1a10:	01 e0       	ldi	r16, 0x01	; 1
    1a12:	0e 94 dc 0f 	call	0x1fb8	; 0x1fb8 <LcdLine>
    1a16:	0e 94 61 12 	call	0x24c2	; 0x24c2 <LcdUpdate>
    1a1a:	80 91 65 02 	lds	r24, 0x0265
    1a1e:	86 32       	cpi	r24, 0x26	; 38
    1a20:	59 f4       	brne	.+22     	; 0x1a38 <odczytgodzinyNokiaanalog+0x494>
    1a22:	0e 94 2d 13 	call	0x265a	; 0x265a <tarcza>
    1a26:	8a e1       	ldi	r24, 0x1A	; 26
    1a28:	6a e2       	ldi	r22, 0x2A	; 42
    1a2a:	48 e2       	ldi	r20, 0x28	; 40
    1a2c:	28 e1       	ldi	r18, 0x18	; 24
    1a2e:	01 e0       	ldi	r16, 0x01	; 1
    1a30:	0e 94 dc 0f 	call	0x1fb8	; 0x1fb8 <LcdLine>
    1a34:	0e 94 61 12 	call	0x24c2	; 0x24c2 <LcdUpdate>
    1a38:	80 91 65 02 	lds	r24, 0x0265
    1a3c:	87 32       	cpi	r24, 0x27	; 39
    1a3e:	59 f4       	brne	.+22     	; 0x1a56 <odczytgodzinyNokiaanalog+0x4b2>
    1a40:	0e 94 2d 13 	call	0x265a	; 0x265a <tarcza>
    1a44:	89 e1       	ldi	r24, 0x19	; 25
    1a46:	6a e2       	ldi	r22, 0x2A	; 42
    1a48:	47 e2       	ldi	r20, 0x27	; 39
    1a4a:	28 e1       	ldi	r18, 0x18	; 24
    1a4c:	01 e0       	ldi	r16, 0x01	; 1
    1a4e:	0e 94 dc 0f 	call	0x1fb8	; 0x1fb8 <LcdLine>
    1a52:	0e 94 61 12 	call	0x24c2	; 0x24c2 <LcdUpdate>
    1a56:	80 91 65 02 	lds	r24, 0x0265
    1a5a:	88 32       	cpi	r24, 0x28	; 40
    1a5c:	59 f4       	brne	.+22     	; 0x1a74 <odczytgodzinyNokiaanalog+0x4d0>
    1a5e:	0e 94 2d 13 	call	0x265a	; 0x265a <tarcza>
    1a62:	88 e1       	ldi	r24, 0x18	; 24
    1a64:	6a e2       	ldi	r22, 0x2A	; 42
    1a66:	46 e2       	ldi	r20, 0x26	; 38
    1a68:	28 e1       	ldi	r18, 0x18	; 24
    1a6a:	01 e0       	ldi	r16, 0x01	; 1
    1a6c:	0e 94 dc 0f 	call	0x1fb8	; 0x1fb8 <LcdLine>
    1a70:	0e 94 61 12 	call	0x24c2	; 0x24c2 <LcdUpdate>
    1a74:	80 91 65 02 	lds	r24, 0x0265
    1a78:	89 32       	cpi	r24, 0x29	; 41
    1a7a:	59 f4       	brne	.+22     	; 0x1a92 <odczytgodzinyNokiaanalog+0x4ee>
    1a7c:	0e 94 2d 13 	call	0x265a	; 0x265a <tarcza>
    1a80:	87 e1       	ldi	r24, 0x17	; 23
    1a82:	6a e2       	ldi	r22, 0x2A	; 42
    1a84:	44 e2       	ldi	r20, 0x24	; 36
    1a86:	28 e1       	ldi	r18, 0x18	; 24
    1a88:	01 e0       	ldi	r16, 0x01	; 1
    1a8a:	0e 94 dc 0f 	call	0x1fb8	; 0x1fb8 <LcdLine>
    1a8e:	0e 94 61 12 	call	0x24c2	; 0x24c2 <LcdUpdate>
    1a92:	80 91 65 02 	lds	r24, 0x0265
    1a96:	8a 32       	cpi	r24, 0x2A	; 42
    1a98:	59 f4       	brne	.+22     	; 0x1ab0 <odczytgodzinyNokiaanalog+0x50c>
    1a9a:	0e 94 2d 13 	call	0x265a	; 0x265a <tarcza>
    1a9e:	85 e1       	ldi	r24, 0x15	; 21
    1aa0:	6a e2       	ldi	r22, 0x2A	; 42
    1aa2:	41 e2       	ldi	r20, 0x21	; 33
    1aa4:	28 e1       	ldi	r18, 0x18	; 24
    1aa6:	01 e0       	ldi	r16, 0x01	; 1
    1aa8:	0e 94 dc 0f 	call	0x1fb8	; 0x1fb8 <LcdLine>
    1aac:	0e 94 61 12 	call	0x24c2	; 0x24c2 <LcdUpdate>
    1ab0:	80 91 65 02 	lds	r24, 0x0265
    1ab4:	8b 32       	cpi	r24, 0x2B	; 43
    1ab6:	59 f4       	brne	.+22     	; 0x1ace <odczytgodzinyNokiaanalog+0x52a>
    1ab8:	0e 94 2d 13 	call	0x265a	; 0x265a <tarcza>
    1abc:	84 e1       	ldi	r24, 0x14	; 20
    1abe:	6a e2       	ldi	r22, 0x2A	; 42
    1ac0:	4e e1       	ldi	r20, 0x1E	; 30
    1ac2:	28 e1       	ldi	r18, 0x18	; 24
    1ac4:	01 e0       	ldi	r16, 0x01	; 1
    1ac6:	0e 94 dc 0f 	call	0x1fb8	; 0x1fb8 <LcdLine>
    1aca:	0e 94 61 12 	call	0x24c2	; 0x24c2 <LcdUpdate>
    1ace:	80 91 65 02 	lds	r24, 0x0265
    1ad2:	8c 32       	cpi	r24, 0x2C	; 44
    1ad4:	59 f4       	brne	.+22     	; 0x1aec <odczytgodzinyNokiaanalog+0x548>
    1ad6:	0e 94 2d 13 	call	0x265a	; 0x265a <tarcza>
    1ada:	83 e1       	ldi	r24, 0x13	; 19
    1adc:	6a e2       	ldi	r22, 0x2A	; 42
    1ade:	49 e1       	ldi	r20, 0x19	; 25
    1ae0:	28 e1       	ldi	r18, 0x18	; 24
    1ae2:	01 e0       	ldi	r16, 0x01	; 1
    1ae4:	0e 94 dc 0f 	call	0x1fb8	; 0x1fb8 <LcdLine>
    1ae8:	0e 94 61 12 	call	0x24c2	; 0x24c2 <LcdUpdate>
    1aec:	80 91 65 02 	lds	r24, 0x0265
    1af0:	8d 32       	cpi	r24, 0x2D	; 45
    1af2:	59 f4       	brne	.+22     	; 0x1b0a <odczytgodzinyNokiaanalog+0x566>
    1af4:	0e 94 2d 13 	call	0x265a	; 0x265a <tarcza>
    1af8:	83 e1       	ldi	r24, 0x13	; 19
    1afa:	6a e2       	ldi	r22, 0x2A	; 42
    1afc:	48 e1       	ldi	r20, 0x18	; 24
    1afe:	28 e1       	ldi	r18, 0x18	; 24
    1b00:	01 e0       	ldi	r16, 0x01	; 1
    1b02:	0e 94 dc 0f 	call	0x1fb8	; 0x1fb8 <LcdLine>
    1b06:	0e 94 61 12 	call	0x24c2	; 0x24c2 <LcdUpdate>
    1b0a:	80 91 65 02 	lds	r24, 0x0265
    1b0e:	8e 32       	cpi	r24, 0x2E	; 46
    1b10:	59 f4       	brne	.+22     	; 0x1b28 <odczytgodzinyNokiaanalog+0x584>
    1b12:	0e 94 2d 13 	call	0x265a	; 0x265a <tarcza>
    1b16:	83 e1       	ldi	r24, 0x13	; 19
    1b18:	6a e2       	ldi	r22, 0x2A	; 42
    1b1a:	46 e1       	ldi	r20, 0x16	; 22
    1b1c:	28 e1       	ldi	r18, 0x18	; 24
    1b1e:	01 e0       	ldi	r16, 0x01	; 1
    1b20:	0e 94 dc 0f 	call	0x1fb8	; 0x1fb8 <LcdLine>
    1b24:	0e 94 61 12 	call	0x24c2	; 0x24c2 <LcdUpdate>
    1b28:	80 91 65 02 	lds	r24, 0x0265
    1b2c:	8f 32       	cpi	r24, 0x2F	; 47
    1b2e:	59 f4       	brne	.+22     	; 0x1b46 <odczytgodzinyNokiaanalog+0x5a2>
    1b30:	0e 94 2d 13 	call	0x265a	; 0x265a <tarcza>
    1b34:	84 e1       	ldi	r24, 0x14	; 20
    1b36:	6a e2       	ldi	r22, 0x2A	; 42
    1b38:	43 e1       	ldi	r20, 0x13	; 19
    1b3a:	28 e1       	ldi	r18, 0x18	; 24
    1b3c:	01 e0       	ldi	r16, 0x01	; 1
    1b3e:	0e 94 dc 0f 	call	0x1fb8	; 0x1fb8 <LcdLine>
    1b42:	0e 94 61 12 	call	0x24c2	; 0x24c2 <LcdUpdate>
    1b46:	80 91 65 02 	lds	r24, 0x0265
    1b4a:	80 33       	cpi	r24, 0x30	; 48
    1b4c:	59 f4       	brne	.+22     	; 0x1b64 <odczytgodzinyNokiaanalog+0x5c0>
    1b4e:	0e 94 2d 13 	call	0x265a	; 0x265a <tarcza>
    1b52:	84 e1       	ldi	r24, 0x14	; 20
    1b54:	6a e2       	ldi	r22, 0x2A	; 42
    1b56:	41 e1       	ldi	r20, 0x11	; 17
    1b58:	28 e1       	ldi	r18, 0x18	; 24
    1b5a:	01 e0       	ldi	r16, 0x01	; 1
    1b5c:	0e 94 dc 0f 	call	0x1fb8	; 0x1fb8 <LcdLine>
    1b60:	0e 94 61 12 	call	0x24c2	; 0x24c2 <LcdUpdate>
    1b64:	80 91 65 02 	lds	r24, 0x0265
    1b68:	81 33       	cpi	r24, 0x31	; 49
    1b6a:	59 f4       	brne	.+22     	; 0x1b82 <odczytgodzinyNokiaanalog+0x5de>
    1b6c:	0e 94 2d 13 	call	0x265a	; 0x265a <tarcza>
    1b70:	85 e1       	ldi	r24, 0x15	; 21
    1b72:	6a e2       	ldi	r22, 0x2A	; 42
    1b74:	4f e0       	ldi	r20, 0x0F	; 15
    1b76:	28 e1       	ldi	r18, 0x18	; 24
    1b78:	01 e0       	ldi	r16, 0x01	; 1
    1b7a:	0e 94 dc 0f 	call	0x1fb8	; 0x1fb8 <LcdLine>
    1b7e:	0e 94 61 12 	call	0x24c2	; 0x24c2 <LcdUpdate>
    1b82:	80 91 65 02 	lds	r24, 0x0265
    1b86:	82 33       	cpi	r24, 0x32	; 50
    1b88:	59 f4       	brne	.+22     	; 0x1ba0 <odczytgodzinyNokiaanalog+0x5fc>
    1b8a:	0e 94 2d 13 	call	0x265a	; 0x265a <tarcza>
    1b8e:	87 e1       	ldi	r24, 0x17	; 23
    1b90:	6a e2       	ldi	r22, 0x2A	; 42
    1b92:	4c e0       	ldi	r20, 0x0C	; 12
    1b94:	28 e1       	ldi	r18, 0x18	; 24
    1b96:	01 e0       	ldi	r16, 0x01	; 1
    1b98:	0e 94 dc 0f 	call	0x1fb8	; 0x1fb8 <LcdLine>
    1b9c:	0e 94 61 12 	call	0x24c2	; 0x24c2 <LcdUpdate>
    1ba0:	80 91 65 02 	lds	r24, 0x0265
    1ba4:	83 33       	cpi	r24, 0x33	; 51
    1ba6:	59 f4       	brne	.+22     	; 0x1bbe <odczytgodzinyNokiaanalog+0x61a>
    1ba8:	0e 94 2d 13 	call	0x265a	; 0x265a <tarcza>
    1bac:	88 e1       	ldi	r24, 0x18	; 24
    1bae:	6a e2       	ldi	r22, 0x2A	; 42
    1bb0:	4b e0       	ldi	r20, 0x0B	; 11
    1bb2:	28 e1       	ldi	r18, 0x18	; 24
    1bb4:	01 e0       	ldi	r16, 0x01	; 1
    1bb6:	0e 94 dc 0f 	call	0x1fb8	; 0x1fb8 <LcdLine>
    1bba:	0e 94 61 12 	call	0x24c2	; 0x24c2 <LcdUpdate>
    1bbe:	80 91 65 02 	lds	r24, 0x0265
    1bc2:	84 33       	cpi	r24, 0x34	; 52
    1bc4:	59 f4       	brne	.+22     	; 0x1bdc <odczytgodzinyNokiaanalog+0x638>
    1bc6:	0e 94 2d 13 	call	0x265a	; 0x265a <tarcza>
    1bca:	89 e1       	ldi	r24, 0x19	; 25
    1bcc:	6a e2       	ldi	r22, 0x2A	; 42
    1bce:	49 e0       	ldi	r20, 0x09	; 9
    1bd0:	28 e1       	ldi	r18, 0x18	; 24
    1bd2:	01 e0       	ldi	r16, 0x01	; 1
    1bd4:	0e 94 dc 0f 	call	0x1fb8	; 0x1fb8 <LcdLine>
    1bd8:	0e 94 61 12 	call	0x24c2	; 0x24c2 <LcdUpdate>
    1bdc:	80 91 65 02 	lds	r24, 0x0265
    1be0:	85 33       	cpi	r24, 0x35	; 53
    1be2:	59 f4       	brne	.+22     	; 0x1bfa <odczytgodzinyNokiaanalog+0x656>
    1be4:	0e 94 2d 13 	call	0x265a	; 0x265a <tarcza>
    1be8:	8b e1       	ldi	r24, 0x1B	; 27
    1bea:	6a e2       	ldi	r22, 0x2A	; 42
    1bec:	47 e0       	ldi	r20, 0x07	; 7
    1bee:	28 e1       	ldi	r18, 0x18	; 24
    1bf0:	01 e0       	ldi	r16, 0x01	; 1
    1bf2:	0e 94 dc 0f 	call	0x1fb8	; 0x1fb8 <LcdLine>
    1bf6:	0e 94 61 12 	call	0x24c2	; 0x24c2 <LcdUpdate>
    1bfa:	80 91 65 02 	lds	r24, 0x0265
    1bfe:	86 33       	cpi	r24, 0x36	; 54
    1c00:	59 f4       	brne	.+22     	; 0x1c18 <odczytgodzinyNokiaanalog+0x674>
    1c02:	0e 94 2d 13 	call	0x265a	; 0x265a <tarcza>
    1c06:	8d e1       	ldi	r24, 0x1D	; 29
    1c08:	6a e2       	ldi	r22, 0x2A	; 42
    1c0a:	46 e0       	ldi	r20, 0x06	; 6
    1c0c:	28 e1       	ldi	r18, 0x18	; 24
    1c0e:	01 e0       	ldi	r16, 0x01	; 1
    1c10:	0e 94 dc 0f 	call	0x1fb8	; 0x1fb8 <LcdLine>
    1c14:	0e 94 61 12 	call	0x24c2	; 0x24c2 <LcdUpdate>
    1c18:	80 91 65 02 	lds	r24, 0x0265
    1c1c:	87 33       	cpi	r24, 0x37	; 55
    1c1e:	59 f4       	brne	.+22     	; 0x1c36 <odczytgodzinyNokiaanalog+0x692>
    1c20:	0e 94 2d 13 	call	0x265a	; 0x265a <tarcza>
    1c24:	8f e1       	ldi	r24, 0x1F	; 31
    1c26:	6a e2       	ldi	r22, 0x2A	; 42
    1c28:	45 e0       	ldi	r20, 0x05	; 5
    1c2a:	28 e1       	ldi	r18, 0x18	; 24
    1c2c:	01 e0       	ldi	r16, 0x01	; 1
    1c2e:	0e 94 dc 0f 	call	0x1fb8	; 0x1fb8 <LcdLine>
    1c32:	0e 94 61 12 	call	0x24c2	; 0x24c2 <LcdUpdate>
    1c36:	80 91 65 02 	lds	r24, 0x0265
    1c3a:	88 33       	cpi	r24, 0x38	; 56
    1c3c:	59 f4       	brne	.+22     	; 0x1c54 <odczytgodzinyNokiaanalog+0x6b0>
    1c3e:	0e 94 2d 13 	call	0x265a	; 0x265a <tarcza>
    1c42:	80 e2       	ldi	r24, 0x20	; 32
    1c44:	6a e2       	ldi	r22, 0x2A	; 42
    1c46:	43 e0       	ldi	r20, 0x03	; 3
    1c48:	28 e1       	ldi	r18, 0x18	; 24
    1c4a:	01 e0       	ldi	r16, 0x01	; 1
    1c4c:	0e 94 dc 0f 	call	0x1fb8	; 0x1fb8 <LcdLine>
    1c50:	0e 94 61 12 	call	0x24c2	; 0x24c2 <LcdUpdate>
    1c54:	80 91 65 02 	lds	r24, 0x0265
    1c58:	89 33       	cpi	r24, 0x39	; 57
    1c5a:	59 f4       	brne	.+22     	; 0x1c72 <odczytgodzinyNokiaanalog+0x6ce>
    1c5c:	0e 94 2d 13 	call	0x265a	; 0x265a <tarcza>
    1c60:	82 e2       	ldi	r24, 0x22	; 34
    1c62:	6a e2       	ldi	r22, 0x2A	; 42
    1c64:	43 e0       	ldi	r20, 0x03	; 3
    1c66:	28 e1       	ldi	r18, 0x18	; 24
    1c68:	01 e0       	ldi	r16, 0x01	; 1
    1c6a:	0e 94 dc 0f 	call	0x1fb8	; 0x1fb8 <LcdLine>
    1c6e:	0e 94 61 12 	call	0x24c2	; 0x24c2 <LcdUpdate>
    1c72:	80 91 65 02 	lds	r24, 0x0265
    1c76:	8a 33       	cpi	r24, 0x3A	; 58
    1c78:	59 f4       	brne	.+22     	; 0x1c90 <odczytgodzinyNokiaanalog+0x6ec>
    1c7a:	0e 94 2d 13 	call	0x265a	; 0x265a <tarcza>
    1c7e:	84 e2       	ldi	r24, 0x24	; 36
    1c80:	6a e2       	ldi	r22, 0x2A	; 42
    1c82:	42 e0       	ldi	r20, 0x02	; 2
    1c84:	28 e1       	ldi	r18, 0x18	; 24
    1c86:	01 e0       	ldi	r16, 0x01	; 1
    1c88:	0e 94 dc 0f 	call	0x1fb8	; 0x1fb8 <LcdLine>
    1c8c:	0e 94 61 12 	call	0x24c2	; 0x24c2 <LcdUpdate>
    1c90:	80 91 65 02 	lds	r24, 0x0265
    1c94:	8b 33       	cpi	r24, 0x3B	; 59
    1c96:	59 f4       	brne	.+22     	; 0x1cae <odczytgodzinyNokiaanalog+0x70a>
    1c98:	0e 94 2d 13 	call	0x265a	; 0x265a <tarcza>
    1c9c:	87 e2       	ldi	r24, 0x27	; 39
    1c9e:	6a e2       	ldi	r22, 0x2A	; 42
    1ca0:	42 e0       	ldi	r20, 0x02	; 2
    1ca2:	28 e1       	ldi	r18, 0x18	; 24
    1ca4:	01 e0       	ldi	r16, 0x01	; 1
    1ca6:	0e 94 dc 0f 	call	0x1fb8	; 0x1fb8 <LcdLine>
    1caa:	0e 94 61 12 	call	0x24c2	; 0x24c2 <LcdUpdate>
    1cae:	0f 91       	pop	r16
    1cb0:	08 95       	ret

00001cb2 <odczytgodzinyNokia>:
    1cb2:	0f 93       	push	r16
    1cb4:	1f 93       	push	r17
    1cb6:	86 e2       	ldi	r24, 0x26	; 38
    1cb8:	68 e2       	ldi	r22, 0x28	; 40
    1cba:	41 e0       	ldi	r20, 0x01	; 1
    1cbc:	29 e1       	ldi	r18, 0x19	; 25
    1cbe:	01 e0       	ldi	r16, 0x01	; 1
    1cc0:	0e 94 97 10 	call	0x212e	; 0x212e <box>
    1cc4:	8a e2       	ldi	r24, 0x2A	; 42
    1cc6:	6c e2       	ldi	r22, 0x2C	; 44
    1cc8:	41 e0       	ldi	r20, 0x01	; 1
    1cca:	2d e3       	ldi	r18, 0x3D	; 61
    1ccc:	0e 94 97 10 	call	0x212e	; 0x212e <box>
    1cd0:	8e e2       	ldi	r24, 0x2E	; 46
    1cd2:	60 e3       	ldi	r22, 0x30	; 48
    1cd4:	41 e0       	ldi	r20, 0x01	; 1
    1cd6:	2d e3       	ldi	r18, 0x3D	; 61
    1cd8:	0e 94 97 10 	call	0x212e	; 0x212e <box>
    1cdc:	8b e0       	ldi	r24, 0x0B	; 11
    1cde:	62 e0       	ldi	r22, 0x02	; 2
    1ce0:	0e 94 08 11 	call	0x2210	; 0x2210 <lcd_goto_xy_exact>
    1ce4:	00 91 64 02 	lds	r16, 0x0264
    1ce8:	80 2f       	mov	r24, r16
    1cea:	6a e0       	ldi	r22, 0x0A	; 10
    1cec:	0e 94 24 15 	call	0x2a48	; 0x2a48 <__udivmodqi4>
    1cf0:	18 2f       	mov	r17, r24
    1cf2:	0e 94 9a 11 	call	0x2334	; 0x2334 <lcd_chrx2>
    1cf6:	86 ef       	ldi	r24, 0xF6	; 246
    1cf8:	9f ef       	ldi	r25, 0xFF	; 255
    1cfa:	18 9f       	mul	r17, r24
    1cfc:	10 2d       	mov	r17, r0
    1cfe:	11 24       	eor	r1, r1
    1d00:	81 2f       	mov	r24, r17
    1d02:	80 0f       	add	r24, r16
    1d04:	0e 94 9a 11 	call	0x2334	; 0x2334 <lcd_chrx2>
    1d08:	0e 94 72 11 	call	0x22e4	; 0x22e4 <dwukropek>
    1d0c:	60 91 64 02 	lds	r22, 0x0264
    1d10:	6f 5f       	subi	r22, 0xFF	; 255
    1d12:	81 e0       	ldi	r24, 0x01	; 1
    1d14:	47 e2       	ldi	r20, 0x27	; 39
    1d16:	27 e2       	ldi	r18, 0x27	; 39
    1d18:	01 e0       	ldi	r16, 0x01	; 1
    1d1a:	0e 94 dc 0f 	call	0x1fb8	; 0x1fb8 <LcdLine>
    1d1e:	80 91 64 02 	lds	r24, 0x0264
    1d22:	88 23       	and	r24, r24
    1d24:	39 f4       	brne	.+14     	; 0x1d34 <odczytgodzinyNokia+0x82>
    1d26:	82 e0       	ldi	r24, 0x02	; 2
    1d28:	68 e1       	ldi	r22, 0x18	; 24
    1d2a:	47 e2       	ldi	r20, 0x27	; 39
    1d2c:	27 e2       	ldi	r18, 0x27	; 39
    1d2e:	00 e0       	ldi	r16, 0x00	; 0
    1d30:	0e 94 dc 0f 	call	0x1fb8	; 0x1fb8 <LcdLine>
    1d34:	00 91 63 02 	lds	r16, 0x0263
    1d38:	80 2f       	mov	r24, r16
    1d3a:	6a e0       	ldi	r22, 0x0A	; 10
    1d3c:	0e 94 24 15 	call	0x2a48	; 0x2a48 <__udivmodqi4>
    1d40:	18 2f       	mov	r17, r24
    1d42:	0e 94 9a 11 	call	0x2334	; 0x2334 <lcd_chrx2>
    1d46:	86 ef       	ldi	r24, 0xF6	; 246
    1d48:	9f ef       	ldi	r25, 0xFF	; 255
    1d4a:	18 9f       	mul	r17, r24
    1d4c:	10 2d       	mov	r17, r0
    1d4e:	11 24       	eor	r1, r1
    1d50:	81 2f       	mov	r24, r17
    1d52:	80 0f       	add	r24, r16
    1d54:	0e 94 9a 11 	call	0x2334	; 0x2334 <lcd_chrx2>
    1d58:	0e 94 72 11 	call	0x22e4	; 0x22e4 <dwukropek>
    1d5c:	60 91 63 02 	lds	r22, 0x0263
    1d60:	6f 5f       	subi	r22, 0xFF	; 255
    1d62:	81 e0       	ldi	r24, 0x01	; 1
    1d64:	4b e2       	ldi	r20, 0x2B	; 43
    1d66:	2b e2       	ldi	r18, 0x2B	; 43
    1d68:	01 e0       	ldi	r16, 0x01	; 1
    1d6a:	0e 94 dc 0f 	call	0x1fb8	; 0x1fb8 <LcdLine>
    1d6e:	80 91 63 02 	lds	r24, 0x0263
    1d72:	88 23       	and	r24, r24
    1d74:	39 f4       	brne	.+14     	; 0x1d84 <odczytgodzinyNokia+0xd2>
    1d76:	82 e0       	ldi	r24, 0x02	; 2
    1d78:	6c e3       	ldi	r22, 0x3C	; 60
    1d7a:	4b e2       	ldi	r20, 0x2B	; 43
    1d7c:	2b e2       	ldi	r18, 0x2B	; 43
    1d7e:	00 e0       	ldi	r16, 0x00	; 0
    1d80:	0e 94 dc 0f 	call	0x1fb8	; 0x1fb8 <LcdLine>
    1d84:	00 91 65 02 	lds	r16, 0x0265
    1d88:	80 2f       	mov	r24, r16
    1d8a:	6a e0       	ldi	r22, 0x0A	; 10
    1d8c:	0e 94 24 15 	call	0x2a48	; 0x2a48 <__udivmodqi4>
    1d90:	18 2f       	mov	r17, r24
    1d92:	0e 94 9a 11 	call	0x2334	; 0x2334 <lcd_chrx2>
    1d96:	86 ef       	ldi	r24, 0xF6	; 246
    1d98:	9f ef       	ldi	r25, 0xFF	; 255
    1d9a:	18 9f       	mul	r17, r24
    1d9c:	10 2d       	mov	r17, r0
    1d9e:	11 24       	eor	r1, r1
    1da0:	81 2f       	mov	r24, r17
    1da2:	80 0f       	add	r24, r16
    1da4:	0e 94 9a 11 	call	0x2334	; 0x2334 <lcd_chrx2>
    1da8:	60 91 65 02 	lds	r22, 0x0265
    1dac:	6f 5f       	subi	r22, 0xFF	; 255
    1dae:	81 e0       	ldi	r24, 0x01	; 1
    1db0:	4f e2       	ldi	r20, 0x2F	; 47
    1db2:	2f e2       	ldi	r18, 0x2F	; 47
    1db4:	01 e0       	ldi	r16, 0x01	; 1
    1db6:	0e 94 dc 0f 	call	0x1fb8	; 0x1fb8 <LcdLine>
    1dba:	80 91 65 02 	lds	r24, 0x0265
    1dbe:	88 23       	and	r24, r24
    1dc0:	39 f4       	brne	.+14     	; 0x1dd0 <odczytgodzinyNokia+0x11e>
    1dc2:	82 e0       	ldi	r24, 0x02	; 2
    1dc4:	6c e3       	ldi	r22, 0x3C	; 60
    1dc6:	4f e2       	ldi	r20, 0x2F	; 47
    1dc8:	2f e2       	ldi	r18, 0x2F	; 47
    1dca:	00 e0       	ldi	r16, 0x00	; 0
    1dcc:	0e 94 dc 0f 	call	0x1fb8	; 0x1fb8 <LcdLine>
    1dd0:	0e 94 61 12 	call	0x24c2	; 0x24c2 <LcdUpdate>
    1dd4:	1f 91       	pop	r17
    1dd6:	0f 91       	pop	r16
    1dd8:	08 95       	ret

00001dda <odczytgodzinyLCD>:
    1dda:	81 e0       	ldi	r24, 0x01	; 1
    1ddc:	60 e0       	ldi	r22, 0x00	; 0
    1dde:	0e 94 10 14 	call	0x2820	; 0x2820 <lcd_locate>
    1de2:	80 91 64 02 	lds	r24, 0x0264
    1de6:	8a 30       	cpi	r24, 0x0A	; 10
    1de8:	20 f4       	brcc	.+8      	; 0x1df2 <odczytgodzinyLCD+0x18>
    1dea:	81 e6       	ldi	r24, 0x61	; 97
    1dec:	90 e0       	ldi	r25, 0x00	; 0
    1dee:	0e 94 b0 13 	call	0x2760	; 0x2760 <lcd_str>
    1df2:	80 91 64 02 	lds	r24, 0x0264
    1df6:	90 e0       	ldi	r25, 0x00	; 0
    1df8:	0e 94 8a 14 	call	0x2914	; 0x2914 <lcd_int>
    1dfc:	83 e6       	ldi	r24, 0x63	; 99
    1dfe:	90 e0       	ldi	r25, 0x00	; 0
    1e00:	0e 94 b0 13 	call	0x2760	; 0x2760 <lcd_str>
    1e04:	80 91 63 02 	lds	r24, 0x0263
    1e08:	8a 30       	cpi	r24, 0x0A	; 10
    1e0a:	20 f4       	brcc	.+8      	; 0x1e14 <odczytgodzinyLCD+0x3a>
    1e0c:	81 e6       	ldi	r24, 0x61	; 97
    1e0e:	90 e0       	ldi	r25, 0x00	; 0
    1e10:	0e 94 b0 13 	call	0x2760	; 0x2760 <lcd_str>
    1e14:	80 91 63 02 	lds	r24, 0x0263
    1e18:	90 e0       	ldi	r25, 0x00	; 0
    1e1a:	0e 94 8a 14 	call	0x2914	; 0x2914 <lcd_int>
    1e1e:	83 e6       	ldi	r24, 0x63	; 99
    1e20:	90 e0       	ldi	r25, 0x00	; 0
    1e22:	0e 94 b0 13 	call	0x2760	; 0x2760 <lcd_str>
    1e26:	80 91 65 02 	lds	r24, 0x0265
    1e2a:	8a 30       	cpi	r24, 0x0A	; 10
    1e2c:	20 f4       	brcc	.+8      	; 0x1e36 <odczytgodzinyLCD+0x5c>
    1e2e:	81 e6       	ldi	r24, 0x61	; 97
    1e30:	90 e0       	ldi	r25, 0x00	; 0
    1e32:	0e 94 b0 13 	call	0x2760	; 0x2760 <lcd_str>
    1e36:	80 91 65 02 	lds	r24, 0x0265
    1e3a:	90 e0       	ldi	r25, 0x00	; 0
    1e3c:	0e 94 8a 14 	call	0x2914	; 0x2914 <lcd_int>
    1e40:	08 95       	ret

00001e42 <aktualizacja>:
    1e42:	df 93       	push	r29
    1e44:	cf 93       	push	r28
    1e46:	00 d0       	rcall	.+0      	; 0x1e48 <aktualizacja+0x6>
    1e48:	00 d0       	rcall	.+0      	; 0x1e4a <aktualizacja+0x8>
    1e4a:	cd b7       	in	r28, 0x3d	; 61
    1e4c:	de b7       	in	r29, 0x3e	; 62
    1e4e:	82 ea       	ldi	r24, 0xA2	; 162
    1e50:	61 e0       	ldi	r22, 0x01	; 1
    1e52:	44 e0       	ldi	r20, 0x04	; 4
    1e54:	9e 01       	movw	r18, r28
    1e56:	2f 5f       	subi	r18, 0xFF	; 255
    1e58:	3f 4f       	sbci	r19, 0xFF	; 255
    1e5a:	0e 94 ea 14 	call	0x29d4	; 0x29d4 <TWI_read_buf>
    1e5e:	2a 81       	ldd	r18, Y+2	; 0x02
    1e60:	3b 81       	ldd	r19, Y+3	; 0x03
    1e62:	4c 81       	ldd	r20, Y+4	; 0x04
    1e64:	82 2f       	mov	r24, r18
    1e66:	82 95       	swap	r24
    1e68:	8f 70       	andi	r24, 0x0F	; 15
    1e6a:	5a e0       	ldi	r21, 0x0A	; 10
    1e6c:	85 9f       	mul	r24, r21
    1e6e:	c0 01       	movw	r24, r0
    1e70:	11 24       	eor	r1, r1
    1e72:	2f 70       	andi	r18, 0x0F	; 15
    1e74:	28 0f       	add	r18, r24
    1e76:	20 93 65 02 	sts	0x0265, r18
    1e7a:	83 2f       	mov	r24, r19
    1e7c:	82 95       	swap	r24
    1e7e:	8f 70       	andi	r24, 0x0F	; 15
    1e80:	85 9f       	mul	r24, r21
    1e82:	c0 01       	movw	r24, r0
    1e84:	11 24       	eor	r1, r1
    1e86:	3f 70       	andi	r19, 0x0F	; 15
    1e88:	38 0f       	add	r19, r24
    1e8a:	30 93 63 02 	sts	0x0263, r19
    1e8e:	84 2f       	mov	r24, r20
    1e90:	82 95       	swap	r24
    1e92:	8f 70       	andi	r24, 0x0F	; 15
    1e94:	85 9f       	mul	r24, r21
    1e96:	c0 01       	movw	r24, r0
    1e98:	11 24       	eor	r1, r1
    1e9a:	4f 70       	andi	r20, 0x0F	; 15
    1e9c:	48 0f       	add	r20, r24
    1e9e:	40 93 64 02 	sts	0x0264, r20
    1ea2:	0f 90       	pop	r0
    1ea4:	0f 90       	pop	r0
    1ea6:	0f 90       	pop	r0
    1ea8:	0f 90       	pop	r0
    1eaa:	cf 91       	pop	r28
    1eac:	df 91       	pop	r29
    1eae:	08 95       	ret

00001eb0 <zapisgodziny>:
    1eb0:	df 93       	push	r29
    1eb2:	cf 93       	push	r28
    1eb4:	00 d0       	rcall	.+0      	; 0x1eb6 <zapisgodziny+0x6>
    1eb6:	00 d0       	rcall	.+0      	; 0x1eb8 <zapisgodziny+0x8>
    1eb8:	cd b7       	in	r28, 0x3d	; 61
    1eba:	de b7       	in	r29, 0x3e	; 62
    1ebc:	19 82       	std	Y+1, r1	; 0x01
    1ebe:	89 e1       	ldi	r24, 0x19	; 25
    1ec0:	0e 94 b7 0a 	call	0x156e	; 0x156e <dec2bcd>
    1ec4:	8a 83       	std	Y+2, r24	; 0x02
    1ec6:	81 e2       	ldi	r24, 0x21	; 33
    1ec8:	0e 94 b7 0a 	call	0x156e	; 0x156e <dec2bcd>
    1ecc:	8b 83       	std	Y+3, r24	; 0x03
    1ece:	80 e1       	ldi	r24, 0x10	; 16
    1ed0:	0e 94 b7 0a 	call	0x156e	; 0x156e <dec2bcd>
    1ed4:	8c 83       	std	Y+4, r24	; 0x04
    1ed6:	82 ea       	ldi	r24, 0xA2	; 162
    1ed8:	61 e0       	ldi	r22, 0x01	; 1
    1eda:	44 e0       	ldi	r20, 0x04	; 4
    1edc:	9e 01       	movw	r18, r28
    1ede:	2f 5f       	subi	r18, 0xFF	; 255
    1ee0:	3f 4f       	sbci	r19, 0xFF	; 255
    1ee2:	0e 94 c4 14 	call	0x2988	; 0x2988 <TWI_write_buf>
    1ee6:	0f 90       	pop	r0
    1ee8:	0f 90       	pop	r0
    1eea:	0f 90       	pop	r0
    1eec:	0f 90       	pop	r0
    1eee:	cf 91       	pop	r28
    1ef0:	df 91       	pop	r29
    1ef2:	08 95       	ret

00001ef4 <LcdPixel>:
    1ef4:	58 2f       	mov	r21, r24
    1ef6:	51 50       	subi	r21, 0x01	; 1
    1ef8:	55 35       	cpi	r21, 0x55	; 85
    1efa:	08 f0       	brcs	.+2      	; 0x1efe <LcdPixel+0xa>
    1efc:	5b c0       	rjmp	.+182    	; 0x1fb4 <LcdPixel+0xc0>
    1efe:	61 50       	subi	r22, 0x01	; 1
    1f00:	61 33       	cpi	r22, 0x31	; 49
    1f02:	08 f0       	brcs	.+2      	; 0x1f06 <LcdPixel+0x12>
    1f04:	57 c0       	rjmp	.+174    	; 0x1fb4 <LcdPixel+0xc0>
    1f06:	86 2f       	mov	r24, r22
    1f08:	86 95       	lsr	r24
    1f0a:	86 95       	lsr	r24
    1f0c:	86 95       	lsr	r24
    1f0e:	90 e0       	ldi	r25, 0x00	; 0
    1f10:	24 e5       	ldi	r18, 0x54	; 84
    1f12:	30 e0       	ldi	r19, 0x00	; 0
    1f14:	82 9f       	mul	r24, r18
    1f16:	d0 01       	movw	r26, r0
    1f18:	83 9f       	mul	r24, r19
    1f1a:	b0 0d       	add	r27, r0
    1f1c:	92 9f       	mul	r25, r18
    1f1e:	b0 0d       	add	r27, r0
    1f20:	11 24       	eor	r1, r1
    1f22:	a5 0f       	add	r26, r21
    1f24:	b1 1d       	adc	r27, r1
    1f26:	23 e0       	ldi	r18, 0x03	; 3
    1f28:	88 0f       	add	r24, r24
    1f2a:	99 1f       	adc	r25, r25
    1f2c:	2a 95       	dec	r18
    1f2e:	e1 f7       	brne	.-8      	; 0x1f28 <LcdPixel+0x34>
    1f30:	68 1b       	sub	r22, r24
    1f32:	fd 01       	movw	r30, r26
    1f34:	e9 59       	subi	r30, 0x99	; 153
    1f36:	ff 4f       	sbci	r31, 0xFF	; 255
    1f38:	20 81       	ld	r18, Z
    1f3a:	44 23       	and	r20, r20
    1f3c:	51 f4       	brne	.+20     	; 0x1f52 <LcdPixel+0x5e>
    1f3e:	81 e0       	ldi	r24, 0x01	; 1
    1f40:	90 e0       	ldi	r25, 0x00	; 0
    1f42:	02 c0       	rjmp	.+4      	; 0x1f48 <LcdPixel+0x54>
    1f44:	88 0f       	add	r24, r24
    1f46:	99 1f       	adc	r25, r25
    1f48:	6a 95       	dec	r22
    1f4a:	e2 f7       	brpl	.-8      	; 0x1f44 <LcdPixel+0x50>
    1f4c:	80 95       	com	r24
    1f4e:	28 23       	and	r18, r24
    1f50:	15 c0       	rjmp	.+42     	; 0x1f7c <LcdPixel+0x88>
    1f52:	41 30       	cpi	r20, 0x01	; 1
    1f54:	49 f4       	brne	.+18     	; 0x1f68 <LcdPixel+0x74>
    1f56:	81 e0       	ldi	r24, 0x01	; 1
    1f58:	90 e0       	ldi	r25, 0x00	; 0
    1f5a:	02 c0       	rjmp	.+4      	; 0x1f60 <LcdPixel+0x6c>
    1f5c:	88 0f       	add	r24, r24
    1f5e:	99 1f       	adc	r25, r25
    1f60:	6a 95       	dec	r22
    1f62:	e2 f7       	brpl	.-8      	; 0x1f5c <LcdPixel+0x68>
    1f64:	28 2b       	or	r18, r24
    1f66:	0a c0       	rjmp	.+20     	; 0x1f7c <LcdPixel+0x88>
    1f68:	42 30       	cpi	r20, 0x02	; 2
    1f6a:	41 f4       	brne	.+16     	; 0x1f7c <LcdPixel+0x88>
    1f6c:	81 e0       	ldi	r24, 0x01	; 1
    1f6e:	90 e0       	ldi	r25, 0x00	; 0
    1f70:	02 c0       	rjmp	.+4      	; 0x1f76 <LcdPixel+0x82>
    1f72:	88 0f       	add	r24, r24
    1f74:	99 1f       	adc	r25, r25
    1f76:	6a 95       	dec	r22
    1f78:	e2 f7       	brpl	.-8      	; 0x1f72 <LcdPixel+0x7e>
    1f7a:	28 27       	eor	r18, r24
    1f7c:	fd 01       	movw	r30, r26
    1f7e:	e9 59       	subi	r30, 0x99	; 153
    1f80:	ff 4f       	sbci	r31, 0xFF	; 255
    1f82:	20 83       	st	Z, r18
    1f84:	80 91 5f 02 	lds	r24, 0x025F
    1f88:	90 91 60 02 	lds	r25, 0x0260
    1f8c:	a8 17       	cp	r26, r24
    1f8e:	b9 07       	cpc	r27, r25
    1f90:	20 f4       	brcc	.+8      	; 0x1f9a <LcdPixel+0xa6>
    1f92:	b0 93 60 02 	sts	0x0260, r27
    1f96:	a0 93 5f 02 	sts	0x025F, r26
    1f9a:	80 91 61 02 	lds	r24, 0x0261
    1f9e:	90 91 62 02 	lds	r25, 0x0262
    1fa2:	8a 17       	cp	r24, r26
    1fa4:	9b 07       	cpc	r25, r27
    1fa6:	20 f4       	brcc	.+8      	; 0x1fb0 <LcdPixel+0xbc>
    1fa8:	b0 93 62 02 	sts	0x0262, r27
    1fac:	a0 93 61 02 	sts	0x0261, r26
    1fb0:	80 e0       	ldi	r24, 0x00	; 0
    1fb2:	08 95       	ret
    1fb4:	81 e0       	ldi	r24, 0x01	; 1
    1fb6:	08 95       	ret

00001fb8 <LcdLine>:
    1fb8:	4f 92       	push	r4
    1fba:	5f 92       	push	r5
    1fbc:	6f 92       	push	r6
    1fbe:	7f 92       	push	r7
    1fc0:	8f 92       	push	r8
    1fc2:	9f 92       	push	r9
    1fc4:	af 92       	push	r10
    1fc6:	bf 92       	push	r11
    1fc8:	cf 92       	push	r12
    1fca:	df 92       	push	r13
    1fcc:	ef 92       	push	r14
    1fce:	ff 92       	push	r15
    1fd0:	0f 93       	push	r16
    1fd2:	1f 93       	push	r17
    1fd4:	cf 93       	push	r28
    1fd6:	df 93       	push	r29
    1fd8:	c8 2e       	mov	r12, r24
    1fda:	46 2e       	mov	r4, r22
    1fdc:	d4 2e       	mov	r13, r20
    1fde:	52 2e       	mov	r5, r18
    1fe0:	70 2e       	mov	r7, r16
    1fe2:	02 2f       	mov	r16, r18
    1fe4:	10 e0       	ldi	r17, 0x00	; 0
    1fe6:	04 1b       	sub	r16, r20
    1fe8:	11 09       	sbc	r17, r1
    1fea:	c6 2f       	mov	r28, r22
    1fec:	d0 e0       	ldi	r29, 0x00	; 0
    1fee:	c8 1b       	sub	r28, r24
    1ff0:	d1 09       	sbc	r29, r1
    1ff2:	17 fd       	sbrc	r17, 7
    1ff4:	04 c0       	rjmp	.+8      	; 0x1ffe <LcdLine+0x46>
    1ff6:	e1 e0       	ldi	r30, 0x01	; 1
    1ff8:	8e 2e       	mov	r8, r30
    1ffa:	91 2c       	mov	r9, r1
    1ffc:	06 c0       	rjmp	.+12     	; 0x200a <LcdLine+0x52>
    1ffe:	10 95       	com	r17
    2000:	01 95       	neg	r16
    2002:	1f 4f       	sbci	r17, 0xFF	; 255
    2004:	88 24       	eor	r8, r8
    2006:	8a 94       	dec	r8
    2008:	98 2c       	mov	r9, r8
    200a:	d7 fd       	sbrc	r29, 7
    200c:	04 c0       	rjmp	.+8      	; 0x2016 <LcdLine+0x5e>
    200e:	71 e0       	ldi	r23, 0x01	; 1
    2010:	a7 2e       	mov	r10, r23
    2012:	b1 2c       	mov	r11, r1
    2014:	06 c0       	rjmp	.+12     	; 0x2022 <LcdLine+0x6a>
    2016:	d0 95       	com	r29
    2018:	c1 95       	neg	r28
    201a:	df 4f       	sbci	r29, 0xFF	; 255
    201c:	aa 24       	eor	r10, r10
    201e:	aa 94       	dec	r10
    2020:	ba 2c       	mov	r11, r10
    2022:	8c 2d       	mov	r24, r12
    2024:	6d 2d       	mov	r22, r13
    2026:	47 2d       	mov	r20, r7
    2028:	0e 94 7a 0f 	call	0x1ef4	; 0x1ef4 <LcdPixel>
    202c:	68 2e       	mov	r6, r24
    202e:	88 23       	and	r24, r24
    2030:	c9 f5       	brne	.+114    	; 0x20a4 <LcdLine+0xec>
    2032:	7e 01       	movw	r14, r28
    2034:	ee 0c       	add	r14, r14
    2036:	ff 1c       	adc	r15, r15
    2038:	00 0f       	add	r16, r16
    203a:	11 1f       	adc	r17, r17
    203c:	0e 15       	cp	r16, r14
    203e:	1f 05       	cpc	r17, r15
    2040:	cc f4       	brge	.+50     	; 0x2074 <LcdLine+0xbc>
    2042:	c7 01       	movw	r24, r14
    2044:	95 95       	asr	r25
    2046:	87 95       	ror	r24
    2048:	e8 01       	movw	r28, r16
    204a:	c8 1b       	sub	r28, r24
    204c:	d9 0b       	sbc	r29, r25
    204e:	0f c0       	rjmp	.+30     	; 0x206e <LcdLine+0xb6>
    2050:	d7 fd       	sbrc	r29, 7
    2052:	03 c0       	rjmp	.+6      	; 0x205a <LcdLine+0xa2>
    2054:	d8 0c       	add	r13, r8
    2056:	ce 19       	sub	r28, r14
    2058:	df 09       	sbc	r29, r15
    205a:	ca 0c       	add	r12, r10
    205c:	8c 2d       	mov	r24, r12
    205e:	6d 2d       	mov	r22, r13
    2060:	47 2d       	mov	r20, r7
    2062:	0e 94 7a 0f 	call	0x1ef4	; 0x1ef4 <LcdPixel>
    2066:	88 23       	and	r24, r24
    2068:	f1 f4       	brne	.+60     	; 0x20a6 <LcdLine+0xee>
    206a:	c0 0f       	add	r28, r16
    206c:	d1 1f       	adc	r29, r17
    206e:	c4 14       	cp	r12, r4
    2070:	79 f7       	brne	.-34     	; 0x2050 <LcdLine+0x98>
    2072:	18 c0       	rjmp	.+48     	; 0x20a4 <LcdLine+0xec>
    2074:	c8 01       	movw	r24, r16
    2076:	95 95       	asr	r25
    2078:	87 95       	ror	r24
    207a:	e7 01       	movw	r28, r14
    207c:	c8 1b       	sub	r28, r24
    207e:	d9 0b       	sbc	r29, r25
    2080:	0f c0       	rjmp	.+30     	; 0x20a0 <LcdLine+0xe8>
    2082:	d7 fd       	sbrc	r29, 7
    2084:	03 c0       	rjmp	.+6      	; 0x208c <LcdLine+0xd4>
    2086:	ca 0c       	add	r12, r10
    2088:	c0 1b       	sub	r28, r16
    208a:	d1 0b       	sbc	r29, r17
    208c:	d8 0c       	add	r13, r8
    208e:	8c 2d       	mov	r24, r12
    2090:	6d 2d       	mov	r22, r13
    2092:	47 2d       	mov	r20, r7
    2094:	0e 94 7a 0f 	call	0x1ef4	; 0x1ef4 <LcdPixel>
    2098:	88 23       	and	r24, r24
    209a:	29 f4       	brne	.+10     	; 0x20a6 <LcdLine+0xee>
    209c:	ce 0d       	add	r28, r14
    209e:	df 1d       	adc	r29, r15
    20a0:	d5 14       	cp	r13, r5
    20a2:	79 f7       	brne	.-34     	; 0x2082 <LcdLine+0xca>
    20a4:	86 2d       	mov	r24, r6
    20a6:	df 91       	pop	r29
    20a8:	cf 91       	pop	r28
    20aa:	1f 91       	pop	r17
    20ac:	0f 91       	pop	r16
    20ae:	ff 90       	pop	r15
    20b0:	ef 90       	pop	r14
    20b2:	df 90       	pop	r13
    20b4:	cf 90       	pop	r12
    20b6:	bf 90       	pop	r11
    20b8:	af 90       	pop	r10
    20ba:	9f 90       	pop	r9
    20bc:	8f 90       	pop	r8
    20be:	7f 90       	pop	r7
    20c0:	6f 90       	pop	r6
    20c2:	5f 90       	pop	r5
    20c4:	4f 90       	pop	r4
    20c6:	08 95       	ret

000020c8 <LcdRect>:
    20c8:	cf 92       	push	r12
    20ca:	df 92       	push	r13
    20cc:	ef 92       	push	r14
    20ce:	ff 92       	push	r15
    20d0:	0f 93       	push	r16
    20d2:	1f 93       	push	r17
    20d4:	d8 2e       	mov	r13, r24
    20d6:	e6 2e       	mov	r14, r22
    20d8:	f2 2e       	mov	r15, r18
    20da:	c0 2e       	mov	r12, r16
    20dc:	84 e5       	ldi	r24, 0x54	; 84
    20de:	8d 15       	cp	r24, r13
    20e0:	e0 f0       	brcs	.+56     	; 0x211a <LcdRect+0x52>
    20e2:	86 17       	cp	r24, r22
    20e4:	d0 f0       	brcs	.+52     	; 0x211a <LcdRect+0x52>
    20e6:	41 33       	cpi	r20, 0x31	; 49
    20e8:	c0 f4       	brcc	.+48     	; 0x211a <LcdRect+0x52>
    20ea:	80 e3       	ldi	r24, 0x30	; 48
    20ec:	82 17       	cp	r24, r18
    20ee:	a8 f0       	brcs	.+42     	; 0x211a <LcdRect+0x52>
    20f0:	d6 16       	cp	r13, r22
    20f2:	a8 f4       	brcc	.+42     	; 0x211e <LcdRect+0x56>
    20f4:	42 17       	cp	r20, r18
    20f6:	98 f4       	brcc	.+38     	; 0x211e <LcdRect+0x56>
    20f8:	04 2f       	mov	r16, r20
    20fa:	0b c0       	rjmp	.+22     	; 0x2112 <LcdRect+0x4a>
    20fc:	81 2f       	mov	r24, r17
    20fe:	60 2f       	mov	r22, r16
    2100:	4c 2d       	mov	r20, r12
    2102:	0e 94 7a 0f 	call	0x1ef4	; 0x1ef4 <LcdPixel>
    2106:	88 23       	and	r24, r24
    2108:	59 f4       	brne	.+22     	; 0x2120 <LcdRect+0x58>
    210a:	1f 5f       	subi	r17, 0xFF	; 255
    210c:	1e 15       	cp	r17, r14
    210e:	b0 f3       	brcs	.-20     	; 0x20fc <LcdRect+0x34>
    2110:	0f 5f       	subi	r16, 0xFF	; 255
    2112:	0f 15       	cp	r16, r15
    2114:	20 f4       	brcc	.+8      	; 0x211e <LcdRect+0x56>
    2116:	1d 2d       	mov	r17, r13
    2118:	f9 cf       	rjmp	.-14     	; 0x210c <LcdRect+0x44>
    211a:	81 e0       	ldi	r24, 0x01	; 1
    211c:	01 c0       	rjmp	.+2      	; 0x2120 <LcdRect+0x58>
    211e:	80 e0       	ldi	r24, 0x00	; 0
    2120:	1f 91       	pop	r17
    2122:	0f 91       	pop	r16
    2124:	ff 90       	pop	r15
    2126:	ef 90       	pop	r14
    2128:	df 90       	pop	r13
    212a:	cf 90       	pop	r12
    212c:	08 95       	ret

0000212e <box>:
    212e:	cf 92       	push	r12
    2130:	df 92       	push	r13
    2132:	ef 92       	push	r14
    2134:	ff 92       	push	r15
    2136:	0f 93       	push	r16
    2138:	1f 93       	push	r17
    213a:	cf 93       	push	r28
    213c:	df 93       	push	r29
    213e:	f8 2e       	mov	r15, r24
    2140:	c6 2e       	mov	r12, r22
    2142:	e4 2e       	mov	r14, r20
    2144:	d2 2e       	mov	r13, r18
    2146:	14 2f       	mov	r17, r20
    2148:	06 c0       	rjmp	.+12     	; 0x2156 <box+0x28>
    214a:	81 2f       	mov	r24, r17
    214c:	6f 2d       	mov	r22, r15
    214e:	40 2f       	mov	r20, r16
    2150:	0e 94 7a 0f 	call	0x1ef4	; 0x1ef4 <LcdPixel>
    2154:	1f 5f       	subi	r17, 0xFF	; 255
    2156:	d1 16       	cp	r13, r17
    2158:	c0 f7       	brcc	.-16     	; 0x214a <box+0x1c>
    215a:	0c c0       	rjmp	.+24     	; 0x2174 <box+0x46>
    215c:	f3 94       	inc	r15
    215e:	8e 2d       	mov	r24, r14
    2160:	6f 2d       	mov	r22, r15
    2162:	40 2f       	mov	r20, r16
    2164:	0e 94 7a 0f 	call	0x1ef4	; 0x1ef4 <LcdPixel>
    2168:	8d 2d       	mov	r24, r13
    216a:	6f 2d       	mov	r22, r15
    216c:	40 2f       	mov	r20, r16
    216e:	0e 94 7a 0f 	call	0x1ef4	; 0x1ef4 <LcdPixel>
    2172:	02 c0       	rjmp	.+4      	; 0x2178 <box+0x4a>
    2174:	cc 2d       	mov	r28, r12
    2176:	d0 e0       	ldi	r29, 0x00	; 0
    2178:	8f 2d       	mov	r24, r15
    217a:	90 e0       	ldi	r25, 0x00	; 0
    217c:	01 96       	adiw	r24, 0x01	; 1
    217e:	8c 17       	cp	r24, r28
    2180:	9d 07       	cpc	r25, r29
    2182:	64 f3       	brlt	.-40     	; 0x215c <box+0x2e>
    2184:	06 c0       	rjmp	.+12     	; 0x2192 <box+0x64>
    2186:	8e 2d       	mov	r24, r14
    2188:	6c 2d       	mov	r22, r12
    218a:	40 2f       	mov	r20, r16
    218c:	0e 94 7a 0f 	call	0x1ef4	; 0x1ef4 <LcdPixel>
    2190:	e3 94       	inc	r14
    2192:	de 14       	cp	r13, r14
    2194:	c0 f7       	brcc	.-16     	; 0x2186 <box+0x58>
    2196:	df 91       	pop	r29
    2198:	cf 91       	pop	r28
    219a:	1f 91       	pop	r17
    219c:	0f 91       	pop	r16
    219e:	ff 90       	pop	r15
    21a0:	ef 90       	pop	r14
    21a2:	df 90       	pop	r13
    21a4:	cf 90       	pop	r12
    21a6:	08 95       	ret

000021a8 <lcd_goto_xy>:
    21a8:	96 e0       	ldi	r25, 0x06	; 6
    21aa:	89 9f       	mul	r24, r25
    21ac:	c0 01       	movw	r24, r0
    21ae:	11 24       	eor	r1, r1
    21b0:	8a 55       	subi	r24, 0x5A	; 90
    21b2:	90 40       	sbci	r25, 0x00	; 0
    21b4:	24 e5       	ldi	r18, 0x54	; 84
    21b6:	62 9f       	mul	r22, r18
    21b8:	b0 01       	movw	r22, r0
    21ba:	11 24       	eor	r1, r1
    21bc:	86 0f       	add	r24, r22
    21be:	97 1f       	adc	r25, r23
    21c0:	90 93 67 02 	sts	0x0267, r25
    21c4:	80 93 66 02 	sts	0x0266, r24
    21c8:	08 95       	ret

000021ca <LcdSend>:
    21ca:	c4 98       	cbi	0x18, 4	; 24
    21cc:	61 30       	cpi	r22, 0x01	; 1
    21ce:	11 f4       	brne	.+4      	; 0x21d4 <LcdSend+0xa>
    21d0:	c0 9a       	sbi	0x18, 0	; 24
    21d2:	01 c0       	rjmp	.+2      	; 0x21d6 <LcdSend+0xc>
    21d4:	c0 98       	cbi	0x18, 0	; 24
    21d6:	8f b9       	out	0x0f, r24	; 15
    21d8:	77 9b       	sbis	0x0e, 7	; 14
    21da:	fe cf       	rjmp	.-4      	; 0x21d8 <LcdSend+0xe>
    21dc:	c4 9a       	sbi	0x18, 4	; 24
    21de:	08 95       	ret

000021e0 <lcd_base_addr>:
    21e0:	0f 93       	push	r16
    21e2:	1f 93       	push	r17
    21e4:	8c 01       	movw	r16, r24
    21e6:	64 e5       	ldi	r22, 0x54	; 84
    21e8:	70 e0       	ldi	r23, 0x00	; 0
    21ea:	0e 94 30 15 	call	0x2a60	; 0x2a60 <__udivmodhi4>
    21ee:	80 68       	ori	r24, 0x80	; 128
    21f0:	60 e0       	ldi	r22, 0x00	; 0
    21f2:	0e 94 e5 10 	call	0x21ca	; 0x21ca <LcdSend>
    21f6:	c8 01       	movw	r24, r16
    21f8:	64 e5       	ldi	r22, 0x54	; 84
    21fa:	70 e0       	ldi	r23, 0x00	; 0
    21fc:	0e 94 30 15 	call	0x2a60	; 0x2a60 <__udivmodhi4>
    2200:	86 2f       	mov	r24, r22
    2202:	80 64       	ori	r24, 0x40	; 64
    2204:	60 e0       	ldi	r22, 0x00	; 0
    2206:	0e 94 e5 10 	call	0x21ca	; 0x21ca <LcdSend>
    220a:	1f 91       	pop	r17
    220c:	0f 91       	pop	r16
    220e:	08 95       	ret

00002210 <lcd_goto_xy_exact>:
    2210:	90 e0       	ldi	r25, 0x00	; 0
    2212:	85 55       	subi	r24, 0x55	; 85
    2214:	90 40       	sbci	r25, 0x00	; 0
    2216:	24 e5       	ldi	r18, 0x54	; 84
    2218:	62 9f       	mul	r22, r18
    221a:	b0 01       	movw	r22, r0
    221c:	11 24       	eor	r1, r1
    221e:	86 0f       	add	r24, r22
    2220:	97 1f       	adc	r25, r23
    2222:	90 93 67 02 	sts	0x0267, r25
    2226:	80 93 66 02 	sts	0x0266, r24
    222a:	0e 94 f0 10 	call	0x21e0	; 0x21e0 <lcd_base_addr>
    222e:	08 95       	ret

00002230 <obrazek1>:
    2230:	af 92       	push	r10
    2232:	bf 92       	push	r11
    2234:	cf 92       	push	r12
    2236:	df 92       	push	r13
    2238:	ef 92       	push	r14
    223a:	ff 92       	push	r15
    223c:	0f 93       	push	r16
    223e:	1f 93       	push	r17
    2240:	cf 93       	push	r28
    2242:	df 93       	push	r29
    2244:	10 92 67 02 	sts	0x0267, r1
    2248:	10 92 66 02 	sts	0x0266, r1
    224c:	a8 ef       	ldi	r26, 0xF8	; 248
    224e:	ca 2e       	mov	r12, r26
    2250:	a2 e0       	ldi	r26, 0x02	; 2
    2252:	da 2e       	mov	r13, r26
    2254:	f8 ec       	ldi	r31, 0xC8	; 200
    2256:	af 2e       	mov	r10, r31
    2258:	b1 2c       	mov	r11, r1
    225a:	36 c0       	rjmp	.+108    	; 0x22c8 <obrazek1+0x98>
    225c:	80 91 66 02 	lds	r24, 0x0266
    2260:	90 91 67 02 	lds	r25, 0x0267
    2264:	0e 94 f0 10 	call	0x21e0	; 0x21e0 <lcd_base_addr>
    2268:	e7 01       	movw	r28, r14
    226a:	10 e0       	ldi	r17, 0x00	; 0
    226c:	fe 01       	movw	r30, r28
    226e:	84 91       	lpm	r24, Z+
    2270:	61 e0       	ldi	r22, 0x01	; 1
    2272:	0e 94 e5 10 	call	0x21ca	; 0x21ca <LcdSend>
    2276:	1f 5f       	subi	r17, 0xFF	; 255
    2278:	21 96       	adiw	r28, 0x01	; 1
    227a:	14 35       	cpi	r17, 0x54	; 84
    227c:	b9 f7       	brne	.-18     	; 0x226c <obrazek1+0x3c>
    227e:	80 91 66 02 	lds	r24, 0x0266
    2282:	90 91 67 02 	lds	r25, 0x0267
    2286:	8c 5a       	subi	r24, 0xAC	; 172
    2288:	9f 4f       	sbci	r25, 0xFF	; 255
    228a:	90 93 67 02 	sts	0x0267, r25
    228e:	80 93 66 02 	sts	0x0266, r24
    2292:	0f 5f       	subi	r16, 0xFF	; 255
    2294:	84 e5       	ldi	r24, 0x54	; 84
    2296:	90 e0       	ldi	r25, 0x00	; 0
    2298:	e8 0e       	add	r14, r24
    229a:	f9 1e       	adc	r15, r25
    229c:	06 30       	cpi	r16, 0x06	; 6
    229e:	f1 f6       	brne	.-68     	; 0x225c <obrazek1+0x2c>
    22a0:	80 ed       	ldi	r24, 0xD0	; 208
    22a2:	97 e0       	ldi	r25, 0x07	; 7
    22a4:	f5 01       	movw	r30, r10
    22a6:	31 97       	sbiw	r30, 0x01	; 1
    22a8:	f1 f7       	brne	.-4      	; 0x22a6 <obrazek1+0x76>
    22aa:	01 97       	sbiw	r24, 0x01	; 1
    22ac:	d9 f7       	brne	.-10     	; 0x22a4 <obrazek1+0x74>
    22ae:	10 92 67 02 	sts	0x0267, r1
    22b2:	10 92 66 02 	sts	0x0266, r1
    22b6:	e8 ef       	ldi	r30, 0xF8	; 248
    22b8:	f1 e0       	ldi	r31, 0x01	; 1
    22ba:	ce 0e       	add	r12, r30
    22bc:	df 1e       	adc	r13, r31
    22be:	f8 eb       	ldi	r31, 0xB8	; 184
    22c0:	cf 16       	cp	r12, r31
    22c2:	f2 e1       	ldi	r31, 0x12	; 18
    22c4:	df 06       	cpc	r13, r31
    22c6:	19 f0       	breq	.+6      	; 0x22ce <obrazek1+0x9e>
    22c8:	76 01       	movw	r14, r12
    22ca:	00 e0       	ldi	r16, 0x00	; 0
    22cc:	c7 cf       	rjmp	.-114    	; 0x225c <obrazek1+0x2c>
    22ce:	df 91       	pop	r29
    22d0:	cf 91       	pop	r28
    22d2:	1f 91       	pop	r17
    22d4:	0f 91       	pop	r16
    22d6:	ff 90       	pop	r15
    22d8:	ef 90       	pop	r14
    22da:	df 90       	pop	r13
    22dc:	cf 90       	pop	r12
    22de:	bf 90       	pop	r11
    22e0:	af 90       	pop	r10
    22e2:	08 95       	ret

000022e4 <dwukropek>:
    22e4:	80 91 66 02 	lds	r24, 0x0266
    22e8:	90 91 67 02 	lds	r25, 0x0267
    22ec:	0e 94 f0 10 	call	0x21e0	; 0x21e0 <lcd_base_addr>
    22f0:	88 e1       	ldi	r24, 0x18	; 24
    22f2:	61 e0       	ldi	r22, 0x01	; 1
    22f4:	0e 94 e5 10 	call	0x21ca	; 0x21ca <LcdSend>
    22f8:	88 e1       	ldi	r24, 0x18	; 24
    22fa:	61 e0       	ldi	r22, 0x01	; 1
    22fc:	0e 94 e5 10 	call	0x21ca	; 0x21ca <LcdSend>
    2300:	80 91 66 02 	lds	r24, 0x0266
    2304:	90 91 67 02 	lds	r25, 0x0267
    2308:	8c 5a       	subi	r24, 0xAC	; 172
    230a:	9f 4f       	sbci	r25, 0xFF	; 255
    230c:	0e 94 f0 10 	call	0x21e0	; 0x21e0 <lcd_base_addr>
    2310:	86 e0       	ldi	r24, 0x06	; 6
    2312:	61 e0       	ldi	r22, 0x01	; 1
    2314:	0e 94 e5 10 	call	0x21ca	; 0x21ca <LcdSend>
    2318:	86 e0       	ldi	r24, 0x06	; 6
    231a:	61 e0       	ldi	r22, 0x01	; 1
    231c:	0e 94 e5 10 	call	0x21ca	; 0x21ca <LcdSend>
    2320:	80 91 66 02 	lds	r24, 0x0266
    2324:	90 91 67 02 	lds	r25, 0x0267
    2328:	03 96       	adiw	r24, 0x03	; 3
    232a:	90 93 67 02 	sts	0x0267, r25
    232e:	80 93 66 02 	sts	0x0266, r24
    2332:	08 95       	ret

00002334 <lcd_chrx2>:
    2334:	ff 92       	push	r15
    2336:	0f 93       	push	r16
    2338:	1f 93       	push	r17
    233a:	cf 93       	push	r28
    233c:	df 93       	push	r29
    233e:	18 2f       	mov	r17, r24
    2340:	80 91 66 02 	lds	r24, 0x0266
    2344:	90 91 67 02 	lds	r25, 0x0267
    2348:	0e 94 f0 10 	call	0x21e0	; 0x21e0 <lcd_base_addr>
    234c:	01 2f       	mov	r16, r17
    234e:	10 e0       	ldi	r17, 0x00	; 0
    2350:	b4 e0       	ldi	r27, 0x04	; 4
    2352:	00 0f       	add	r16, r16
    2354:	11 1f       	adc	r17, r17
    2356:	ba 95       	dec	r27
    2358:	e1 f7       	brne	.-8      	; 0x2352 <lcd_chrx2+0x1e>
    235a:	e8 01       	movw	r28, r16
    235c:	c8 5a       	subi	r28, 0xA8	; 168
    235e:	dd 4f       	sbci	r29, 0xFD	; 253
    2360:	ff 24       	eor	r15, r15
    2362:	fe 01       	movw	r30, r28
    2364:	84 91       	lpm	r24, Z+
    2366:	61 e0       	ldi	r22, 0x01	; 1
    2368:	0e 94 e5 10 	call	0x21ca	; 0x21ca <LcdSend>
    236c:	f3 94       	inc	r15
    236e:	21 96       	adiw	r28, 0x01	; 1
    2370:	f8 e0       	ldi	r31, 0x08	; 8
    2372:	ff 16       	cp	r15, r31
    2374:	b1 f7       	brne	.-20     	; 0x2362 <lcd_chrx2+0x2e>
    2376:	80 91 66 02 	lds	r24, 0x0266
    237a:	90 91 67 02 	lds	r25, 0x0267
    237e:	8c 5a       	subi	r24, 0xAC	; 172
    2380:	9f 4f       	sbci	r25, 0xFF	; 255
    2382:	0e 94 f0 10 	call	0x21e0	; 0x21e0 <lcd_base_addr>
    2386:	e8 01       	movw	r28, r16
    2388:	c0 5a       	subi	r28, 0xA0	; 160
    238a:	dd 4f       	sbci	r29, 0xFD	; 253
    238c:	00 5f       	subi	r16, 0xF0	; 240
    238e:	1f 4f       	sbci	r17, 0xFF	; 255
    2390:	08 5a       	subi	r16, 0xA8	; 168
    2392:	1d 4f       	sbci	r17, 0xFD	; 253
    2394:	fe 01       	movw	r30, r28
    2396:	84 91       	lpm	r24, Z+
    2398:	61 e0       	ldi	r22, 0x01	; 1
    239a:	0e 94 e5 10 	call	0x21ca	; 0x21ca <LcdSend>
    239e:	21 96       	adiw	r28, 0x01	; 1
    23a0:	c0 17       	cp	r28, r16
    23a2:	d1 07       	cpc	r29, r17
    23a4:	b9 f7       	brne	.-18     	; 0x2394 <lcd_chrx2+0x60>
    23a6:	80 91 66 02 	lds	r24, 0x0266
    23aa:	90 91 67 02 	lds	r25, 0x0267
    23ae:	09 96       	adiw	r24, 0x09	; 9
    23b0:	90 93 67 02 	sts	0x0267, r25
    23b4:	80 93 66 02 	sts	0x0266, r24
    23b8:	df 91       	pop	r29
    23ba:	cf 91       	pop	r28
    23bc:	1f 91       	pop	r17
    23be:	0f 91       	pop	r16
    23c0:	ff 90       	pop	r15
    23c2:	08 95       	ret

000023c4 <lcd_chr>:
    23c4:	0f 93       	push	r16
    23c6:	1f 93       	push	r17
    23c8:	cf 93       	push	r28
    23ca:	df 93       	push	r29
    23cc:	08 2f       	mov	r16, r24
    23ce:	80 91 66 02 	lds	r24, 0x0266
    23d2:	90 91 67 02 	lds	r25, 0x0267
    23d6:	0e 94 f0 10 	call	0x21e0	; 0x21e0 <lcd_base_addr>
    23da:	85 e0       	ldi	r24, 0x05	; 5
    23dc:	08 9f       	mul	r16, r24
    23de:	80 01       	movw	r16, r0
    23e0:	11 24       	eor	r1, r1
    23e2:	e8 01       	movw	r28, r16
    23e4:	c8 5e       	subi	r28, 0xE8	; 232
    23e6:	dd 4e       	sbci	r29, 0xED	; 237
    23e8:	0b 59       	subi	r16, 0x9B	; 155
    23ea:	10 40       	sbci	r17, 0x00	; 0
    23ec:	08 54       	subi	r16, 0x48	; 72
    23ee:	1d 4e       	sbci	r17, 0xED	; 237
    23f0:	fe 01       	movw	r30, r28
    23f2:	84 91       	lpm	r24, Z+
    23f4:	88 0f       	add	r24, r24
    23f6:	61 e0       	ldi	r22, 0x01	; 1
    23f8:	0e 94 e5 10 	call	0x21ca	; 0x21ca <LcdSend>
    23fc:	21 96       	adiw	r28, 0x01	; 1
    23fe:	c0 17       	cp	r28, r16
    2400:	d1 07       	cpc	r29, r17
    2402:	b1 f7       	brne	.-20     	; 0x23f0 <lcd_chr+0x2c>
    2404:	80 e0       	ldi	r24, 0x00	; 0
    2406:	61 e0       	ldi	r22, 0x01	; 1
    2408:	0e 94 e5 10 	call	0x21ca	; 0x21ca <LcdSend>
    240c:	80 91 66 02 	lds	r24, 0x0266
    2410:	90 91 67 02 	lds	r25, 0x0267
    2414:	06 96       	adiw	r24, 0x06	; 6
    2416:	90 93 67 02 	sts	0x0267, r25
    241a:	80 93 66 02 	sts	0x0266, r24
    241e:	df 91       	pop	r29
    2420:	cf 91       	pop	r28
    2422:	1f 91       	pop	r17
    2424:	0f 91       	pop	r16
    2426:	08 95       	ret

00002428 <lcd_nstr>:
    2428:	cf 93       	push	r28
    242a:	df 93       	push	r29
    242c:	ec 01       	movw	r28, r24
    242e:	03 c0       	rjmp	.+6      	; 0x2436 <lcd_nstr+0xe>
    2430:	21 96       	adiw	r28, 0x01	; 1
    2432:	0e 94 e2 11 	call	0x23c4	; 0x23c4 <lcd_chr>
    2436:	88 81       	ld	r24, Y
    2438:	88 23       	and	r24, r24
    243a:	d1 f7       	brne	.-12     	; 0x2430 <lcd_nstr+0x8>
    243c:	df 91       	pop	r29
    243e:	cf 91       	pop	r28
    2440:	08 95       	ret

00002442 <lcd_clear_area>:
    2442:	0f 93       	push	r16
    2444:	1f 93       	push	r17
    2446:	cf 93       	push	r28
    2448:	df 93       	push	r29
    244a:	94 e5       	ldi	r25, 0x54	; 84
    244c:	89 9f       	mul	r24, r25
    244e:	c0 01       	movw	r24, r0
    2450:	11 24       	eor	r1, r1
    2452:	84 55       	subi	r24, 0x54	; 84
    2454:	90 40       	sbci	r25, 0x00	; 0
    2456:	8c 01       	movw	r16, r24
    2458:	04 0f       	add	r16, r20
    245a:	11 1d       	adc	r17, r1
    245c:	c6 2f       	mov	r28, r22
    245e:	d0 e0       	ldi	r29, 0x00	; 0
    2460:	21 97       	sbiw	r28, 0x01	; 1
    2462:	c8 0f       	add	r28, r24
    2464:	d9 1f       	adc	r29, r25
    2466:	ce 01       	movw	r24, r28
    2468:	0e 94 f0 10 	call	0x21e0	; 0x21e0 <lcd_base_addr>
    246c:	05 c0       	rjmp	.+10     	; 0x2478 <lcd_clear_area+0x36>
    246e:	80 e0       	ldi	r24, 0x00	; 0
    2470:	61 e0       	ldi	r22, 0x01	; 1
    2472:	0e 94 e5 10 	call	0x21ca	; 0x21ca <LcdSend>
    2476:	21 96       	adiw	r28, 0x01	; 1
    2478:	c0 17       	cp	r28, r16
    247a:	d1 07       	cpc	r29, r17
    247c:	c0 f3       	brcs	.-16     	; 0x246e <lcd_clear_area+0x2c>
    247e:	df 91       	pop	r29
    2480:	cf 91       	pop	r28
    2482:	1f 91       	pop	r17
    2484:	0f 91       	pop	r16
    2486:	08 95       	ret

00002488 <lcd_clear_line>:
    2488:	61 e0       	ldi	r22, 0x01	; 1
    248a:	44 e5       	ldi	r20, 0x54	; 84
    248c:	0e 94 21 12 	call	0x2442	; 0x2442 <lcd_clear_area>
    2490:	08 95       	ret

00002492 <lcd_clear>:
    2492:	cf 93       	push	r28
    2494:	df 93       	push	r29
    2496:	10 92 67 02 	sts	0x0267, r1
    249a:	10 92 66 02 	sts	0x0266, r1
    249e:	80 e0       	ldi	r24, 0x00	; 0
    24a0:	90 e0       	ldi	r25, 0x00	; 0
    24a2:	0e 94 f0 10 	call	0x21e0	; 0x21e0 <lcd_base_addr>
    24a6:	c0 e0       	ldi	r28, 0x00	; 0
    24a8:	d0 e0       	ldi	r29, 0x00	; 0
    24aa:	80 e0       	ldi	r24, 0x00	; 0
    24ac:	61 e0       	ldi	r22, 0x01	; 1
    24ae:	0e 94 e5 10 	call	0x21ca	; 0x21ca <LcdSend>
    24b2:	21 96       	adiw	r28, 0x01	; 1
    24b4:	82 e0       	ldi	r24, 0x02	; 2
    24b6:	c2 35       	cpi	r28, 0x52	; 82
    24b8:	d8 07       	cpc	r29, r24
    24ba:	b9 f7       	brne	.-18     	; 0x24aa <lcd_clear+0x18>
    24bc:	df 91       	pop	r29
    24be:	cf 91       	pop	r28
    24c0:	08 95       	ret

000024c2 <LcdUpdate>:
    24c2:	ef 92       	push	r14
    24c4:	ff 92       	push	r15
    24c6:	0f 93       	push	r16
    24c8:	1f 93       	push	r17
    24ca:	cf 93       	push	r28
    24cc:	df 93       	push	r29
    24ce:	80 91 5f 02 	lds	r24, 0x025F
    24d2:	90 91 60 02 	lds	r25, 0x0260
    24d6:	97 ff       	sbrs	r25, 7
    24d8:	05 c0       	rjmp	.+10     	; 0x24e4 <LcdUpdate+0x22>
    24da:	10 92 60 02 	sts	0x0260, r1
    24de:	10 92 5f 02 	sts	0x025F, r1
    24e2:	09 c0       	rjmp	.+18     	; 0x24f6 <LcdUpdate+0x34>
    24e4:	88 5f       	subi	r24, 0xF8	; 248
    24e6:	91 40       	sbci	r25, 0x01	; 1
    24e8:	34 f0       	brlt	.+12     	; 0x24f6 <LcdUpdate+0x34>
    24ea:	87 ef       	ldi	r24, 0xF7	; 247
    24ec:	91 e0       	ldi	r25, 0x01	; 1
    24ee:	90 93 60 02 	sts	0x0260, r25
    24f2:	80 93 5f 02 	sts	0x025F, r24
    24f6:	80 91 61 02 	lds	r24, 0x0261
    24fa:	90 91 62 02 	lds	r25, 0x0262
    24fe:	97 ff       	sbrs	r25, 7
    2500:	05 c0       	rjmp	.+10     	; 0x250c <LcdUpdate+0x4a>
    2502:	10 92 62 02 	sts	0x0262, r1
    2506:	10 92 61 02 	sts	0x0261, r1
    250a:	09 c0       	rjmp	.+18     	; 0x251e <LcdUpdate+0x5c>
    250c:	88 5f       	subi	r24, 0xF8	; 248
    250e:	91 40       	sbci	r25, 0x01	; 1
    2510:	34 f0       	brlt	.+12     	; 0x251e <LcdUpdate+0x5c>
    2512:	87 ef       	ldi	r24, 0xF7	; 247
    2514:	91 e0       	ldi	r25, 0x01	; 1
    2516:	90 93 62 02 	sts	0x0262, r25
    251a:	80 93 61 02 	sts	0x0261, r24
    251e:	c0 91 5f 02 	lds	r28, 0x025F
    2522:	d0 91 60 02 	lds	r29, 0x0260
    2526:	ce 01       	movw	r24, r28
    2528:	64 e5       	ldi	r22, 0x54	; 84
    252a:	70 e0       	ldi	r23, 0x00	; 0
    252c:	0e 94 44 15 	call	0x2a88	; 0x2a88 <__divmodhi4>
    2530:	80 68       	ori	r24, 0x80	; 128
    2532:	60 e0       	ldi	r22, 0x00	; 0
    2534:	0e 94 e5 10 	call	0x21ca	; 0x21ca <LcdSend>
    2538:	ce 01       	movw	r24, r28
    253a:	64 e5       	ldi	r22, 0x54	; 84
    253c:	70 e0       	ldi	r23, 0x00	; 0
    253e:	0e 94 44 15 	call	0x2a88	; 0x2a88 <__divmodhi4>
    2542:	86 2f       	mov	r24, r22
    2544:	80 64       	ori	r24, 0x40	; 64
    2546:	60 e0       	ldi	r22, 0x00	; 0
    2548:	0e 94 e5 10 	call	0x21ca	; 0x21ca <LcdSend>
    254c:	e0 90 61 02 	lds	r14, 0x0261
    2550:	f0 90 62 02 	lds	r15, 0x0262
    2554:	8e 01       	movw	r16, r28
    2556:	09 59       	subi	r16, 0x99	; 153
    2558:	1f 4f       	sbci	r17, 0xFF	; 255
    255a:	2f c0       	rjmp	.+94     	; 0x25ba <LcdUpdate+0xf8>
    255c:	c4 35       	cpi	r28, 0x54	; 84
    255e:	d1 05       	cpc	r29, r1
    2560:	49 f4       	brne	.+18     	; 0x2574 <LcdUpdate+0xb2>
    2562:	81 e4       	ldi	r24, 0x41	; 65
    2564:	60 e0       	ldi	r22, 0x00	; 0
    2566:	0e 94 e5 10 	call	0x21ca	; 0x21ca <LcdSend>
    256a:	80 e8       	ldi	r24, 0x80	; 128
    256c:	60 e0       	ldi	r22, 0x00	; 0
    256e:	0e 94 e5 10 	call	0x21ca	; 0x21ca <LcdSend>
    2572:	10 c0       	rjmp	.+32     	; 0x2594 <LcdUpdate+0xd2>
    2574:	c8 3a       	cpi	r28, 0xA8	; 168
    2576:	d1 05       	cpc	r29, r1
    2578:	11 f4       	brne	.+4      	; 0x257e <LcdUpdate+0xbc>
    257a:	82 e4       	ldi	r24, 0x42	; 66
    257c:	10 c0       	rjmp	.+32     	; 0x259e <LcdUpdate+0xdc>
    257e:	cc 3f       	cpi	r28, 0xFC	; 252
    2580:	d1 05       	cpc	r29, r1
    2582:	11 f4       	brne	.+4      	; 0x2588 <LcdUpdate+0xc6>
    2584:	83 e4       	ldi	r24, 0x43	; 67
    2586:	0b c0       	rjmp	.+22     	; 0x259e <LcdUpdate+0xdc>
    2588:	f1 e0       	ldi	r31, 0x01	; 1
    258a:	c0 35       	cpi	r28, 0x50	; 80
    258c:	df 07       	cpc	r29, r31
    258e:	11 f4       	brne	.+4      	; 0x2594 <LcdUpdate+0xd2>
    2590:	84 e4       	ldi	r24, 0x44	; 68
    2592:	05 c0       	rjmp	.+10     	; 0x259e <LcdUpdate+0xdc>
    2594:	21 e0       	ldi	r18, 0x01	; 1
    2596:	c4 3a       	cpi	r28, 0xA4	; 164
    2598:	d2 07       	cpc	r29, r18
    259a:	41 f4       	brne	.+16     	; 0x25ac <LcdUpdate+0xea>
    259c:	85 e4       	ldi	r24, 0x45	; 69
    259e:	60 e0       	ldi	r22, 0x00	; 0
    25a0:	0e 94 e5 10 	call	0x21ca	; 0x21ca <LcdSend>
    25a4:	80 e8       	ldi	r24, 0x80	; 128
    25a6:	60 e0       	ldi	r22, 0x00	; 0
    25a8:	0e 94 e5 10 	call	0x21ca	; 0x21ca <LcdSend>
    25ac:	f8 01       	movw	r30, r16
    25ae:	81 91       	ld	r24, Z+
    25b0:	8f 01       	movw	r16, r30
    25b2:	61 e0       	ldi	r22, 0x01	; 1
    25b4:	0e 94 e5 10 	call	0x21ca	; 0x21ca <LcdSend>
    25b8:	21 96       	adiw	r28, 0x01	; 1
    25ba:	ec 16       	cp	r14, r28
    25bc:	fd 06       	cpc	r15, r29
    25be:	74 f6       	brge	.-100    	; 0x255c <LcdUpdate+0x9a>
    25c0:	87 ef       	ldi	r24, 0xF7	; 247
    25c2:	91 e0       	ldi	r25, 0x01	; 1
    25c4:	90 93 60 02 	sts	0x0260, r25
    25c8:	80 93 5f 02 	sts	0x025F, r24
    25cc:	10 92 62 02 	sts	0x0262, r1
    25d0:	10 92 61 02 	sts	0x0261, r1
    25d4:	df 91       	pop	r29
    25d6:	cf 91       	pop	r28
    25d8:	1f 91       	pop	r17
    25da:	0f 91       	pop	r16
    25dc:	ff 90       	pop	r15
    25de:	ef 90       	pop	r14
    25e0:	08 95       	ret

000025e2 <lcd_contrast>:
    25e2:	1f 93       	push	r17
    25e4:	18 2f       	mov	r17, r24
    25e6:	81 e2       	ldi	r24, 0x21	; 33
    25e8:	60 e0       	ldi	r22, 0x00	; 0
    25ea:	0e 94 e5 10 	call	0x21ca	; 0x21ca <LcdSend>
    25ee:	81 2f       	mov	r24, r17
    25f0:	80 68       	ori	r24, 0x80	; 128
    25f2:	60 e0       	ldi	r22, 0x00	; 0
    25f4:	0e 94 e5 10 	call	0x21ca	; 0x21ca <LcdSend>
    25f8:	80 e2       	ldi	r24, 0x20	; 32
    25fa:	60 e0       	ldi	r22, 0x00	; 0
    25fc:	0e 94 e5 10 	call	0x21ca	; 0x21ca <LcdSend>
    2600:	1f 91       	pop	r17
    2602:	08 95       	ret

00002604 <lcd_ninit>:
    2604:	c6 9a       	sbi	0x18, 6	; 24
    2606:	87 b3       	in	r24, 0x17	; 23
    2608:	81 6f       	ori	r24, 0xF1	; 241
    260a:	87 bb       	out	0x17, r24	; 23
    260c:	80 ed       	ldi	r24, 0xD0	; 208
    260e:	97 e0       	ldi	r25, 0x07	; 7
    2610:	fc 01       	movw	r30, r24
    2612:	31 97       	sbiw	r30, 0x01	; 1
    2614:	f1 f7       	brne	.-4      	; 0x2612 <lcd_ninit+0xe>
    2616:	c6 98       	cbi	0x18, 6	; 24
    2618:	01 97       	sbiw	r24, 0x01	; 1
    261a:	f1 f7       	brne	.-4      	; 0x2618 <lcd_ninit+0x14>
    261c:	c6 9a       	sbi	0x18, 6	; 24
    261e:	80 e5       	ldi	r24, 0x50	; 80
    2620:	8d b9       	out	0x0d, r24	; 13
    2622:	c4 9a       	sbi	0x18, 4	; 24
    2624:	81 e2       	ldi	r24, 0x21	; 33
    2626:	60 e0       	ldi	r22, 0x00	; 0
    2628:	0e 94 e5 10 	call	0x21ca	; 0x21ca <LcdSend>
    262c:	88 ec       	ldi	r24, 0xC8	; 200
    262e:	60 e0       	ldi	r22, 0x00	; 0
    2630:	0e 94 e5 10 	call	0x21ca	; 0x21ca <LcdSend>
    2634:	85 e0       	ldi	r24, 0x05	; 5
    2636:	60 e0       	ldi	r22, 0x00	; 0
    2638:	0e 94 e5 10 	call	0x21ca	; 0x21ca <LcdSend>
    263c:	83 e1       	ldi	r24, 0x13	; 19
    263e:	60 e0       	ldi	r22, 0x00	; 0
    2640:	0e 94 e5 10 	call	0x21ca	; 0x21ca <LcdSend>
    2644:	80 e2       	ldi	r24, 0x20	; 32
    2646:	60 e0       	ldi	r22, 0x00	; 0
    2648:	0e 94 e5 10 	call	0x21ca	; 0x21ca <LcdSend>
    264c:	8c e0       	ldi	r24, 0x0C	; 12
    264e:	60 e0       	ldi	r22, 0x00	; 0
    2650:	0e 94 e5 10 	call	0x21ca	; 0x21ca <LcdSend>
    2654:	0e 94 49 12 	call	0x2492	; 0x2492 <lcd_clear>
    2658:	08 95       	ret

0000265a <tarcza>:
    265a:	87 e6       	ldi	r24, 0x67	; 103
    265c:	90 e0       	ldi	r25, 0x00	; 0
    265e:	60 e6       	ldi	r22, 0x60	; 96
    2660:	70 e0       	ldi	r23, 0x00	; 0
    2662:	48 ef       	ldi	r20, 0xF8	; 248
    2664:	51 e0       	ldi	r21, 0x01	; 1
    2666:	0e 94 57 15 	call	0x2aae	; 0x2aae <memcpy_P>
    266a:	10 92 60 02 	sts	0x0260, r1
    266e:	10 92 5f 02 	sts	0x025F, r1
    2672:	87 ef       	ldi	r24, 0xF7	; 247
    2674:	91 e0       	ldi	r25, 0x01	; 1
    2676:	90 93 62 02 	sts	0x0262, r25
    267a:	80 93 61 02 	sts	0x0261, r24
    267e:	08 95       	ret

00002680 <oproznijbufor>:
    2680:	88 ef       	ldi	r24, 0xF8	; 248
    2682:	91 e0       	ldi	r25, 0x01	; 1
    2684:	e7 e6       	ldi	r30, 0x67	; 103
    2686:	f0 e0       	ldi	r31, 0x00	; 0
    2688:	df 01       	movw	r26, r30
    268a:	9c 01       	movw	r18, r24
    268c:	1d 92       	st	X+, r1
    268e:	21 50       	subi	r18, 0x01	; 1
    2690:	30 40       	sbci	r19, 0x00	; 0
    2692:	e1 f7       	brne	.-8      	; 0x268c <oproznijbufor+0xc>
    2694:	08 95       	ret

00002696 <lcd_sendHalf>:
    2696:	80 ff       	sbrs	r24, 0
    2698:	02 c0       	rjmp	.+4      	; 0x269e <lcd_sendHalf+0x8>
    269a:	db 9a       	sbi	0x1b, 3	; 27
    269c:	01 c0       	rjmp	.+2      	; 0x26a0 <lcd_sendHalf+0xa>
    269e:	db 98       	cbi	0x1b, 3	; 27
    26a0:	81 ff       	sbrs	r24, 1
    26a2:	02 c0       	rjmp	.+4      	; 0x26a8 <lcd_sendHalf+0x12>
    26a4:	dc 9a       	sbi	0x1b, 4	; 27
    26a6:	01 c0       	rjmp	.+2      	; 0x26aa <lcd_sendHalf+0x14>
    26a8:	dc 98       	cbi	0x1b, 4	; 27
    26aa:	82 ff       	sbrs	r24, 2
    26ac:	02 c0       	rjmp	.+4      	; 0x26b2 <lcd_sendHalf+0x1c>
    26ae:	dd 9a       	sbi	0x1b, 5	; 27
    26b0:	01 c0       	rjmp	.+2      	; 0x26b4 <lcd_sendHalf+0x1e>
    26b2:	dd 98       	cbi	0x1b, 5	; 27
    26b4:	83 ff       	sbrs	r24, 3
    26b6:	02 c0       	rjmp	.+4      	; 0x26bc <lcd_sendHalf+0x26>
    26b8:	de 9a       	sbi	0x1b, 6	; 27
    26ba:	08 95       	ret
    26bc:	de 98       	cbi	0x1b, 6	; 27
    26be:	08 95       	ret

000026c0 <lcd_readHalf>:
    26c0:	89 b3       	in	r24, 0x19	; 25
    26c2:	90 e0       	ldi	r25, 0x00	; 0
    26c4:	23 e0       	ldi	r18, 0x03	; 3
    26c6:	96 95       	lsr	r25
    26c8:	87 95       	ror	r24
    26ca:	2a 95       	dec	r18
    26cc:	e1 f7       	brne	.-8      	; 0x26c6 <lcd_readHalf+0x6>
    26ce:	81 70       	andi	r24, 0x01	; 1
    26d0:	cc 99       	sbic	0x19, 4	; 25
    26d2:	82 60       	ori	r24, 0x02	; 2
    26d4:	cd 99       	sbic	0x19, 5	; 25
    26d6:	84 60       	ori	r24, 0x04	; 4
    26d8:	ce 99       	sbic	0x19, 6	; 25
    26da:	88 60       	ori	r24, 0x08	; 8
    26dc:	08 95       	ret

000026de <_lcd_read_byte>:
    26de:	1f 93       	push	r17
    26e0:	d6 98       	cbi	0x1a, 6	; 26
    26e2:	d5 98       	cbi	0x1a, 5	; 26
    26e4:	d4 98       	cbi	0x1a, 4	; 26
    26e6:	d3 98       	cbi	0x1a, 3	; 26
    26e8:	d9 9a       	sbi	0x1b, 1	; 27
    26ea:	da 9a       	sbi	0x1b, 2	; 27
    26ec:	0e 94 60 13 	call	0x26c0	; 0x26c0 <lcd_readHalf>
    26f0:	18 2f       	mov	r17, r24
    26f2:	12 95       	swap	r17
    26f4:	10 7f       	andi	r17, 0xF0	; 240
    26f6:	da 98       	cbi	0x1b, 2	; 27
    26f8:	da 9a       	sbi	0x1b, 2	; 27
    26fa:	0e 94 60 13 	call	0x26c0	; 0x26c0 <lcd_readHalf>
    26fe:	da 98       	cbi	0x1b, 2	; 27
    2700:	81 2b       	or	r24, r17
    2702:	1f 91       	pop	r17
    2704:	08 95       	ret

00002706 <check_BF>:
    2706:	d8 98       	cbi	0x1b, 0	; 27
    2708:	0e 94 6f 13 	call	0x26de	; 0x26de <_lcd_read_byte>
    270c:	08 95       	ret

0000270e <_lcd_write_byte>:
    270e:	1f 93       	push	r17
    2710:	18 2f       	mov	r17, r24
    2712:	d6 9a       	sbi	0x1a, 6	; 26
    2714:	d5 9a       	sbi	0x1a, 5	; 26
    2716:	d4 9a       	sbi	0x1a, 4	; 26
    2718:	d3 9a       	sbi	0x1a, 3	; 26
    271a:	d9 98       	cbi	0x1b, 1	; 27
    271c:	da 9a       	sbi	0x1b, 2	; 27
    271e:	82 95       	swap	r24
    2720:	8f 70       	andi	r24, 0x0F	; 15
    2722:	0e 94 4b 13 	call	0x2696	; 0x2696 <lcd_sendHalf>
    2726:	da 98       	cbi	0x1b, 2	; 27
    2728:	da 9a       	sbi	0x1b, 2	; 27
    272a:	81 2f       	mov	r24, r17
    272c:	0e 94 4b 13 	call	0x2696	; 0x2696 <lcd_sendHalf>
    2730:	da 98       	cbi	0x1b, 2	; 27
    2732:	0e 94 83 13 	call	0x2706	; 0x2706 <check_BF>
    2736:	87 fd       	sbrc	r24, 7
    2738:	fc cf       	rjmp	.-8      	; 0x2732 <_lcd_write_byte+0x24>
    273a:	1f 91       	pop	r17
    273c:	08 95       	ret

0000273e <lcd_write_cmd>:
    273e:	d8 98       	cbi	0x1b, 0	; 27
    2740:	0e 94 87 13 	call	0x270e	; 0x270e <_lcd_write_byte>
    2744:	08 95       	ret

00002746 <lcd_write_data>:
    2746:	d8 9a       	sbi	0x1b, 0	; 27
    2748:	0e 94 87 13 	call	0x270e	; 0x270e <_lcd_write_byte>
    274c:	08 95       	ret

0000274e <lcd_char>:
    274e:	98 2f       	mov	r25, r24
    2750:	80 58       	subi	r24, 0x80	; 128
    2752:	88 30       	cpi	r24, 0x08	; 8
    2754:	08 f4       	brcc	.+2      	; 0x2758 <lcd_char+0xa>
    2756:	97 70       	andi	r25, 0x07	; 7
    2758:	89 2f       	mov	r24, r25
    275a:	0e 94 a3 13 	call	0x2746	; 0x2746 <lcd_write_data>
    275e:	08 95       	ret

00002760 <lcd_str>:
    2760:	cf 93       	push	r28
    2762:	df 93       	push	r29
    2764:	ec 01       	movw	r28, r24
    2766:	08 c0       	rjmp	.+16     	; 0x2778 <lcd_str+0x18>
    2768:	89 2f       	mov	r24, r25
    276a:	80 58       	subi	r24, 0x80	; 128
    276c:	88 30       	cpi	r24, 0x08	; 8
    276e:	08 f4       	brcc	.+2      	; 0x2772 <lcd_str+0x12>
    2770:	97 70       	andi	r25, 0x07	; 7
    2772:	89 2f       	mov	r24, r25
    2774:	0e 94 a3 13 	call	0x2746	; 0x2746 <lcd_write_data>
    2778:	99 91       	ld	r25, Y+
    277a:	99 23       	and	r25, r25
    277c:	a9 f7       	brne	.-22     	; 0x2768 <lcd_str+0x8>
    277e:	df 91       	pop	r29
    2780:	cf 91       	pop	r28
    2782:	08 95       	ret

00002784 <lcd_str_P>:
    2784:	cf 93       	push	r28
    2786:	df 93       	push	r29
    2788:	ec 01       	movw	r28, r24
    278a:	0a c0       	rjmp	.+20     	; 0x27a0 <lcd_str_P+0x1c>
    278c:	89 2f       	mov	r24, r25
    278e:	80 58       	subi	r24, 0x80	; 128
    2790:	88 30       	cpi	r24, 0x08	; 8
    2792:	10 f0       	brcs	.+4      	; 0x2798 <lcd_str_P+0x14>
    2794:	89 2f       	mov	r24, r25
    2796:	02 c0       	rjmp	.+4      	; 0x279c <lcd_str_P+0x18>
    2798:	89 2f       	mov	r24, r25
    279a:	87 70       	andi	r24, 0x07	; 7
    279c:	0e 94 a3 13 	call	0x2746	; 0x2746 <lcd_write_data>
    27a0:	fe 01       	movw	r30, r28
    27a2:	21 96       	adiw	r28, 0x01	; 1
    27a4:	94 91       	lpm	r25, Z+
    27a6:	99 23       	and	r25, r25
    27a8:	89 f7       	brne	.-30     	; 0x278c <lcd_str_P+0x8>
    27aa:	df 91       	pop	r29
    27ac:	cf 91       	pop	r28
    27ae:	08 95       	ret

000027b0 <lcd_defchar>:
    27b0:	1f 93       	push	r17
    27b2:	cf 93       	push	r28
    27b4:	df 93       	push	r29
    27b6:	eb 01       	movw	r28, r22
    27b8:	90 e0       	ldi	r25, 0x00	; 0
    27ba:	87 70       	andi	r24, 0x07	; 7
    27bc:	90 70       	andi	r25, 0x00	; 0
    27be:	08 96       	adiw	r24, 0x08	; 8
    27c0:	88 0f       	add	r24, r24
    27c2:	88 0f       	add	r24, r24
    27c4:	88 0f       	add	r24, r24
    27c6:	0e 94 9f 13 	call	0x273e	; 0x273e <lcd_write_cmd>
    27ca:	10 e0       	ldi	r17, 0x00	; 0
    27cc:	89 91       	ld	r24, Y+
    27ce:	0e 94 a3 13 	call	0x2746	; 0x2746 <lcd_write_data>
    27d2:	1f 5f       	subi	r17, 0xFF	; 255
    27d4:	18 30       	cpi	r17, 0x08	; 8
    27d6:	d1 f7       	brne	.-12     	; 0x27cc <lcd_defchar+0x1c>
    27d8:	df 91       	pop	r29
    27da:	cf 91       	pop	r28
    27dc:	1f 91       	pop	r17
    27de:	08 95       	ret

000027e0 <lcd_defchar_P>:
    27e0:	0f 93       	push	r16
    27e2:	1f 93       	push	r17
    27e4:	cf 93       	push	r28
    27e6:	df 93       	push	r29
    27e8:	8b 01       	movw	r16, r22
    27ea:	90 e0       	ldi	r25, 0x00	; 0
    27ec:	87 70       	andi	r24, 0x07	; 7
    27ee:	90 70       	andi	r25, 0x00	; 0
    27f0:	08 96       	adiw	r24, 0x08	; 8
    27f2:	88 0f       	add	r24, r24
    27f4:	88 0f       	add	r24, r24
    27f6:	88 0f       	add	r24, r24
    27f8:	0e 94 9f 13 	call	0x273e	; 0x273e <lcd_write_cmd>
    27fc:	c0 e0       	ldi	r28, 0x00	; 0
    27fe:	d0 e0       	ldi	r29, 0x00	; 0
    2800:	f8 01       	movw	r30, r16
    2802:	ec 0f       	add	r30, r28
    2804:	fd 1f       	adc	r31, r29
    2806:	e4 91       	lpm	r30, Z+
    2808:	8e 2f       	mov	r24, r30
    280a:	0e 94 a3 13 	call	0x2746	; 0x2746 <lcd_write_data>
    280e:	21 96       	adiw	r28, 0x01	; 1
    2810:	c8 30       	cpi	r28, 0x08	; 8
    2812:	d1 05       	cpc	r29, r1
    2814:	a9 f7       	brne	.-22     	; 0x2800 <lcd_defchar_P+0x20>
    2816:	df 91       	pop	r29
    2818:	cf 91       	pop	r28
    281a:	1f 91       	pop	r17
    281c:	0f 91       	pop	r16
    281e:	08 95       	ret

00002820 <lcd_locate>:
    2820:	81 30       	cpi	r24, 0x01	; 1
    2822:	09 f4       	brne	.+2      	; 0x2826 <lcd_locate+0x6>
    2824:	80 e4       	ldi	r24, 0x40	; 64
    2826:	60 58       	subi	r22, 0x80	; 128
    2828:	86 0f       	add	r24, r22
    282a:	0e 94 9f 13 	call	0x273e	; 0x273e <lcd_write_cmd>
    282e:	08 95       	ret

00002830 <lcd_cls>:
    2830:	81 e0       	ldi	r24, 0x01	; 1
    2832:	0e 94 9f 13 	call	0x273e	; 0x273e <lcd_write_cmd>
    2836:	08 95       	ret

00002838 <lcd_init>:
    2838:	0f 93       	push	r16
    283a:	1f 93       	push	r17
    283c:	d6 9a       	sbi	0x1a, 6	; 26
    283e:	d5 9a       	sbi	0x1a, 5	; 26
    2840:	d4 9a       	sbi	0x1a, 4	; 26
    2842:	d3 9a       	sbi	0x1a, 3	; 26
    2844:	d0 9a       	sbi	0x1a, 0	; 26
    2846:	d2 9a       	sbi	0x1a, 2	; 26
    2848:	d1 9a       	sbi	0x1a, 1	; 26
    284a:	d8 98       	cbi	0x1b, 0	; 27
    284c:	da 98       	cbi	0x1b, 2	; 27
    284e:	d9 98       	cbi	0x1b, 1	; 27
    2850:	80 e3       	ldi	r24, 0x30	; 48
    2852:	95 e7       	ldi	r25, 0x75	; 117
    2854:	01 97       	sbiw	r24, 0x01	; 1
    2856:	f1 f7       	brne	.-4      	; 0x2854 <lcd_init+0x1c>
    2858:	d8 98       	cbi	0x1b, 0	; 27
    285a:	d9 98       	cbi	0x1b, 1	; 27
    285c:	80 e3       	ldi	r24, 0x30	; 48
    285e:	0e 94 4b 13 	call	0x2696	; 0x2696 <lcd_sendHalf>
    2862:	88 e0       	ldi	r24, 0x08	; 8
    2864:	90 e2       	ldi	r25, 0x20	; 32
    2866:	01 97       	sbiw	r24, 0x01	; 1
    2868:	f1 f7       	brne	.-4      	; 0x2866 <lcd_init+0x2e>
    286a:	80 e3       	ldi	r24, 0x30	; 48
    286c:	0e 94 4b 13 	call	0x2696	; 0x2696 <lcd_sendHalf>
    2870:	08 ec       	ldi	r16, 0xC8	; 200
    2872:	10 e0       	ldi	r17, 0x00	; 0
    2874:	c8 01       	movw	r24, r16
    2876:	01 97       	sbiw	r24, 0x01	; 1
    2878:	f1 f7       	brne	.-4      	; 0x2876 <lcd_init+0x3e>
    287a:	80 e2       	ldi	r24, 0x20	; 32
    287c:	0e 94 4b 13 	call	0x2696	; 0x2696 <lcd_sendHalf>
    2880:	c8 01       	movw	r24, r16
    2882:	01 97       	sbiw	r24, 0x01	; 1
    2884:	f1 f7       	brne	.-4      	; 0x2882 <lcd_init+0x4a>
    2886:	88 e2       	ldi	r24, 0x28	; 40
    2888:	0e 94 9f 13 	call	0x273e	; 0x273e <lcd_write_cmd>
    288c:	88 e0       	ldi	r24, 0x08	; 8
    288e:	0e 94 9f 13 	call	0x273e	; 0x273e <lcd_write_cmd>
    2892:	8c e0       	ldi	r24, 0x0C	; 12
    2894:	0e 94 9f 13 	call	0x273e	; 0x273e <lcd_write_cmd>
    2898:	86 e0       	ldi	r24, 0x06	; 6
    289a:	0e 94 9f 13 	call	0x273e	; 0x273e <lcd_write_cmd>
    289e:	0e 94 18 14 	call	0x2830	; 0x2830 <lcd_cls>
    28a2:	1f 91       	pop	r17
    28a4:	0f 91       	pop	r16
    28a6:	08 95       	ret

000028a8 <lcd_defchar_E>:
    28a8:	0f 93       	push	r16
    28aa:	1f 93       	push	r17
    28ac:	cf 93       	push	r28
    28ae:	df 93       	push	r29
    28b0:	8b 01       	movw	r16, r22
    28b2:	90 e0       	ldi	r25, 0x00	; 0
    28b4:	87 70       	andi	r24, 0x07	; 7
    28b6:	90 70       	andi	r25, 0x00	; 0
    28b8:	08 96       	adiw	r24, 0x08	; 8
    28ba:	88 0f       	add	r24, r24
    28bc:	88 0f       	add	r24, r24
    28be:	88 0f       	add	r24, r24
    28c0:	0e 94 9f 13 	call	0x273e	; 0x273e <lcd_write_cmd>
    28c4:	c0 e0       	ldi	r28, 0x00	; 0
    28c6:	d0 e0       	ldi	r29, 0x00	; 0
    28c8:	c8 01       	movw	r24, r16
    28ca:	8c 0f       	add	r24, r28
    28cc:	9d 1f       	adc	r25, r29
    28ce:	0e 94 81 15 	call	0x2b02	; 0x2b02 <__eerd_byte_m32>
    28d2:	0e 94 a3 13 	call	0x2746	; 0x2746 <lcd_write_data>
    28d6:	21 96       	adiw	r28, 0x01	; 1
    28d8:	c8 30       	cpi	r28, 0x08	; 8
    28da:	d1 05       	cpc	r29, r1
    28dc:	a9 f7       	brne	.-22     	; 0x28c8 <lcd_defchar_E+0x20>
    28de:	df 91       	pop	r29
    28e0:	cf 91       	pop	r28
    28e2:	1f 91       	pop	r17
    28e4:	0f 91       	pop	r16
    28e6:	08 95       	ret

000028e8 <lcd_str_E>:
    28e8:	cf 93       	push	r28
    28ea:	df 93       	push	r29
    28ec:	ec 01       	movw	r28, r24
    28ee:	21 96       	adiw	r28, 0x01	; 1
    28f0:	0e 94 81 15 	call	0x2b02	; 0x2b02 <__eerd_byte_m32>
    28f4:	98 2f       	mov	r25, r24
    28f6:	81 50       	subi	r24, 0x01	; 1
    28f8:	8e 3f       	cpi	r24, 0xFE	; 254
    28fa:	48 f4       	brcc	.+18     	; 0x290e <lcd_str_E+0x26>
    28fc:	8f 57       	subi	r24, 0x7F	; 127
    28fe:	88 30       	cpi	r24, 0x08	; 8
    2900:	08 f4       	brcc	.+2      	; 0x2904 <lcd_str_E+0x1c>
    2902:	97 70       	andi	r25, 0x07	; 7
    2904:	89 2f       	mov	r24, r25
    2906:	0e 94 a3 13 	call	0x2746	; 0x2746 <lcd_write_data>
    290a:	ce 01       	movw	r24, r28
    290c:	ef cf       	rjmp	.-34     	; 0x28ec <lcd_str_E+0x4>
    290e:	df 91       	pop	r29
    2910:	cf 91       	pop	r28
    2912:	08 95       	ret

00002914 <lcd_int>:
    2914:	df 93       	push	r29
    2916:	cf 93       	push	r28
    2918:	cd b7       	in	r28, 0x3d	; 61
    291a:	de b7       	in	r29, 0x3e	; 62
    291c:	61 97       	sbiw	r28, 0x11	; 17
    291e:	0f b6       	in	r0, 0x3f	; 63
    2920:	f8 94       	cli
    2922:	de bf       	out	0x3e, r29	; 62
    2924:	0f be       	out	0x3f, r0	; 63
    2926:	cd bf       	out	0x3d, r28	; 61
    2928:	be 01       	movw	r22, r28
    292a:	6f 5f       	subi	r22, 0xFF	; 255
    292c:	7f 4f       	sbci	r23, 0xFF	; 255
    292e:	4a e0       	ldi	r20, 0x0A	; 10
    2930:	50 e0       	ldi	r21, 0x00	; 0
    2932:	0e 94 60 15 	call	0x2ac0	; 0x2ac0 <itoa>
    2936:	0e 94 b0 13 	call	0x2760	; 0x2760 <lcd_str>
    293a:	61 96       	adiw	r28, 0x11	; 17
    293c:	0f b6       	in	r0, 0x3f	; 63
    293e:	f8 94       	cli
    2940:	de bf       	out	0x3e, r29	; 62
    2942:	0f be       	out	0x3f, r0	; 63
    2944:	cd bf       	out	0x3d, r28	; 61
    2946:	cf 91       	pop	r28
    2948:	df 91       	pop	r29
    294a:	08 95       	ret

0000294c <TWI_start>:
    294c:	84 ea       	ldi	r24, 0xA4	; 164
    294e:	86 bf       	out	0x36, r24	; 54
    2950:	06 b6       	in	r0, 0x36	; 54
    2952:	07 fe       	sbrs	r0, 7
    2954:	fd cf       	rjmp	.-6      	; 0x2950 <TWI_start+0x4>
    2956:	08 95       	ret

00002958 <TWI_stop>:
    2958:	84 e9       	ldi	r24, 0x94	; 148
    295a:	86 bf       	out	0x36, r24	; 54
    295c:	06 b6       	in	r0, 0x36	; 54
    295e:	04 fe       	sbrs	r0, 4
    2960:	fd cf       	rjmp	.-6      	; 0x295c <TWI_stop+0x4>
    2962:	08 95       	ret

00002964 <TWI_write>:
    2964:	83 b9       	out	0x03, r24	; 3
    2966:	84 e8       	ldi	r24, 0x84	; 132
    2968:	86 bf       	out	0x36, r24	; 54
    296a:	06 b6       	in	r0, 0x36	; 54
    296c:	07 fe       	sbrs	r0, 7
    296e:	fd cf       	rjmp	.-6      	; 0x296a <TWI_write+0x6>
    2970:	08 95       	ret

00002972 <TWI_read>:
    2972:	82 95       	swap	r24
    2974:	88 0f       	add	r24, r24
    2976:	88 0f       	add	r24, r24
    2978:	80 7c       	andi	r24, 0xC0	; 192
    297a:	84 68       	ori	r24, 0x84	; 132
    297c:	86 bf       	out	0x36, r24	; 54
    297e:	06 b6       	in	r0, 0x36	; 54
    2980:	07 fe       	sbrs	r0, 7
    2982:	fd cf       	rjmp	.-6      	; 0x297e <TWI_read+0xc>
    2984:	83 b1       	in	r24, 0x03	; 3
    2986:	08 95       	ret

00002988 <TWI_write_buf>:
    2988:	98 2f       	mov	r25, r24
    298a:	f9 01       	movw	r30, r18
    298c:	84 ea       	ldi	r24, 0xA4	; 164
    298e:	86 bf       	out	0x36, r24	; 54
    2990:	06 b6       	in	r0, 0x36	; 54
    2992:	07 fe       	sbrs	r0, 7
    2994:	fd cf       	rjmp	.-6      	; 0x2990 <TWI_write_buf+0x8>
    2996:	93 b9       	out	0x03, r25	; 3
    2998:	84 e8       	ldi	r24, 0x84	; 132
    299a:	86 bf       	out	0x36, r24	; 54
    299c:	06 b6       	in	r0, 0x36	; 54
    299e:	07 fe       	sbrs	r0, 7
    29a0:	fd cf       	rjmp	.-6      	; 0x299c <TWI_write_buf+0x14>
    29a2:	63 b9       	out	0x03, r22	; 3
    29a4:	84 e8       	ldi	r24, 0x84	; 132
    29a6:	86 bf       	out	0x36, r24	; 54
    29a8:	06 b6       	in	r0, 0x36	; 54
    29aa:	07 fe       	sbrs	r0, 7
    29ac:	fd cf       	rjmp	.-6      	; 0x29a8 <TWI_write_buf+0x20>
    29ae:	09 c0       	rjmp	.+18     	; 0x29c2 <TWI_write_buf+0x3a>
    29b0:	80 81       	ld	r24, Z
    29b2:	83 b9       	out	0x03, r24	; 3
    29b4:	96 bf       	out	0x36, r25	; 54
    29b6:	06 b6       	in	r0, 0x36	; 54
    29b8:	07 fe       	sbrs	r0, 7
    29ba:	fd cf       	rjmp	.-6      	; 0x29b6 <TWI_write_buf+0x2e>
    29bc:	31 96       	adiw	r30, 0x01	; 1
    29be:	41 50       	subi	r20, 0x01	; 1
    29c0:	01 c0       	rjmp	.+2      	; 0x29c4 <TWI_write_buf+0x3c>
    29c2:	94 e8       	ldi	r25, 0x84	; 132
    29c4:	44 23       	and	r20, r20
    29c6:	a1 f7       	brne	.-24     	; 0x29b0 <TWI_write_buf+0x28>
    29c8:	84 e9       	ldi	r24, 0x94	; 148
    29ca:	86 bf       	out	0x36, r24	; 54
    29cc:	06 b6       	in	r0, 0x36	; 54
    29ce:	04 fe       	sbrs	r0, 4
    29d0:	fd cf       	rjmp	.-6      	; 0x29cc <TWI_write_buf+0x44>
    29d2:	08 95       	ret

000029d4 <TWI_read_buf>:
    29d4:	98 2f       	mov	r25, r24
    29d6:	f9 01       	movw	r30, r18
    29d8:	84 ea       	ldi	r24, 0xA4	; 164
    29da:	86 bf       	out	0x36, r24	; 54
    29dc:	06 b6       	in	r0, 0x36	; 54
    29de:	07 fe       	sbrs	r0, 7
    29e0:	fd cf       	rjmp	.-6      	; 0x29dc <TWI_read_buf+0x8>
    29e2:	93 b9       	out	0x03, r25	; 3
    29e4:	84 e8       	ldi	r24, 0x84	; 132
    29e6:	86 bf       	out	0x36, r24	; 54
    29e8:	06 b6       	in	r0, 0x36	; 54
    29ea:	07 fe       	sbrs	r0, 7
    29ec:	fd cf       	rjmp	.-6      	; 0x29e8 <TWI_read_buf+0x14>
    29ee:	63 b9       	out	0x03, r22	; 3
    29f0:	84 e8       	ldi	r24, 0x84	; 132
    29f2:	86 bf       	out	0x36, r24	; 54
    29f4:	06 b6       	in	r0, 0x36	; 54
    29f6:	07 fe       	sbrs	r0, 7
    29f8:	fd cf       	rjmp	.-6      	; 0x29f4 <TWI_read_buf+0x20>
    29fa:	84 ea       	ldi	r24, 0xA4	; 164
    29fc:	86 bf       	out	0x36, r24	; 54
    29fe:	06 b6       	in	r0, 0x36	; 54
    2a00:	07 fe       	sbrs	r0, 7
    2a02:	fd cf       	rjmp	.-6      	; 0x29fe <TWI_read_buf+0x2a>
    2a04:	9f 5f       	subi	r25, 0xFF	; 255
    2a06:	93 b9       	out	0x03, r25	; 3
    2a08:	84 e8       	ldi	r24, 0x84	; 132
    2a0a:	86 bf       	out	0x36, r24	; 54
    2a0c:	06 b6       	in	r0, 0x36	; 54
    2a0e:	07 fe       	sbrs	r0, 7
    2a10:	fd cf       	rjmp	.-6      	; 0x2a0c <TWI_read_buf+0x38>
    2a12:	12 c0       	rjmp	.+36     	; 0x2a38 <TWI_read_buf+0x64>
    2a14:	41 50       	subi	r20, 0x01	; 1
    2a16:	80 e0       	ldi	r24, 0x00	; 0
    2a18:	90 e0       	ldi	r25, 0x00	; 0
    2a1a:	11 f0       	breq	.+4      	; 0x2a20 <TWI_read_buf+0x4c>
    2a1c:	81 e0       	ldi	r24, 0x01	; 1
    2a1e:	90 e0       	ldi	r25, 0x00	; 0
    2a20:	26 e0       	ldi	r18, 0x06	; 6
    2a22:	88 0f       	add	r24, r24
    2a24:	99 1f       	adc	r25, r25
    2a26:	2a 95       	dec	r18
    2a28:	e1 f7       	brne	.-8      	; 0x2a22 <TWI_read_buf+0x4e>
    2a2a:	84 68       	ori	r24, 0x84	; 132
    2a2c:	86 bf       	out	0x36, r24	; 54
    2a2e:	06 b6       	in	r0, 0x36	; 54
    2a30:	07 fe       	sbrs	r0, 7
    2a32:	fd cf       	rjmp	.-6      	; 0x2a2e <TWI_read_buf+0x5a>
    2a34:	83 b1       	in	r24, 0x03	; 3
    2a36:	81 93       	st	Z+, r24
    2a38:	44 23       	and	r20, r20
    2a3a:	61 f7       	brne	.-40     	; 0x2a14 <TWI_read_buf+0x40>
    2a3c:	84 e9       	ldi	r24, 0x94	; 148
    2a3e:	86 bf       	out	0x36, r24	; 54
    2a40:	06 b6       	in	r0, 0x36	; 54
    2a42:	04 fe       	sbrs	r0, 4
    2a44:	fd cf       	rjmp	.-6      	; 0x2a40 <TWI_read_buf+0x6c>
    2a46:	08 95       	ret

00002a48 <__udivmodqi4>:
    2a48:	99 1b       	sub	r25, r25
    2a4a:	79 e0       	ldi	r23, 0x09	; 9
    2a4c:	04 c0       	rjmp	.+8      	; 0x2a56 <__udivmodqi4_ep>

00002a4e <__udivmodqi4_loop>:
    2a4e:	99 1f       	adc	r25, r25
    2a50:	96 17       	cp	r25, r22
    2a52:	08 f0       	brcs	.+2      	; 0x2a56 <__udivmodqi4_ep>
    2a54:	96 1b       	sub	r25, r22

00002a56 <__udivmodqi4_ep>:
    2a56:	88 1f       	adc	r24, r24
    2a58:	7a 95       	dec	r23
    2a5a:	c9 f7       	brne	.-14     	; 0x2a4e <__udivmodqi4_loop>
    2a5c:	80 95       	com	r24
    2a5e:	08 95       	ret

00002a60 <__udivmodhi4>:
    2a60:	aa 1b       	sub	r26, r26
    2a62:	bb 1b       	sub	r27, r27
    2a64:	51 e1       	ldi	r21, 0x11	; 17
    2a66:	07 c0       	rjmp	.+14     	; 0x2a76 <__udivmodhi4_ep>

00002a68 <__udivmodhi4_loop>:
    2a68:	aa 1f       	adc	r26, r26
    2a6a:	bb 1f       	adc	r27, r27
    2a6c:	a6 17       	cp	r26, r22
    2a6e:	b7 07       	cpc	r27, r23
    2a70:	10 f0       	brcs	.+4      	; 0x2a76 <__udivmodhi4_ep>
    2a72:	a6 1b       	sub	r26, r22
    2a74:	b7 0b       	sbc	r27, r23

00002a76 <__udivmodhi4_ep>:
    2a76:	88 1f       	adc	r24, r24
    2a78:	99 1f       	adc	r25, r25
    2a7a:	5a 95       	dec	r21
    2a7c:	a9 f7       	brne	.-22     	; 0x2a68 <__udivmodhi4_loop>
    2a7e:	80 95       	com	r24
    2a80:	90 95       	com	r25
    2a82:	bc 01       	movw	r22, r24
    2a84:	cd 01       	movw	r24, r26
    2a86:	08 95       	ret

00002a88 <__divmodhi4>:
    2a88:	97 fb       	bst	r25, 7
    2a8a:	09 2e       	mov	r0, r25
    2a8c:	07 26       	eor	r0, r23
    2a8e:	0a d0       	rcall	.+20     	; 0x2aa4 <__divmodhi4_neg1>
    2a90:	77 fd       	sbrc	r23, 7
    2a92:	04 d0       	rcall	.+8      	; 0x2a9c <__divmodhi4_neg2>
    2a94:	e5 df       	rcall	.-54     	; 0x2a60 <__udivmodhi4>
    2a96:	06 d0       	rcall	.+12     	; 0x2aa4 <__divmodhi4_neg1>
    2a98:	00 20       	and	r0, r0
    2a9a:	1a f4       	brpl	.+6      	; 0x2aa2 <__divmodhi4_exit>

00002a9c <__divmodhi4_neg2>:
    2a9c:	70 95       	com	r23
    2a9e:	61 95       	neg	r22
    2aa0:	7f 4f       	sbci	r23, 0xFF	; 255

00002aa2 <__divmodhi4_exit>:
    2aa2:	08 95       	ret

00002aa4 <__divmodhi4_neg1>:
    2aa4:	f6 f7       	brtc	.-4      	; 0x2aa2 <__divmodhi4_exit>
    2aa6:	90 95       	com	r25
    2aa8:	81 95       	neg	r24
    2aaa:	9f 4f       	sbci	r25, 0xFF	; 255
    2aac:	08 95       	ret

00002aae <memcpy_P>:
    2aae:	fb 01       	movw	r30, r22
    2ab0:	dc 01       	movw	r26, r24
    2ab2:	02 c0       	rjmp	.+4      	; 0x2ab8 <memcpy_P+0xa>
    2ab4:	05 90       	lpm	r0, Z+
    2ab6:	0d 92       	st	X+, r0
    2ab8:	41 50       	subi	r20, 0x01	; 1
    2aba:	50 40       	sbci	r21, 0x00	; 0
    2abc:	d8 f7       	brcc	.-10     	; 0x2ab4 <memcpy_P+0x6>
    2abe:	08 95       	ret

00002ac0 <itoa>:
    2ac0:	fb 01       	movw	r30, r22
    2ac2:	9f 01       	movw	r18, r30
    2ac4:	e8 94       	clt
    2ac6:	42 30       	cpi	r20, 0x02	; 2
    2ac8:	c4 f0       	brlt	.+48     	; 0x2afa <itoa+0x3a>
    2aca:	45 32       	cpi	r20, 0x25	; 37
    2acc:	b4 f4       	brge	.+44     	; 0x2afa <itoa+0x3a>
    2ace:	4a 30       	cpi	r20, 0x0A	; 10
    2ad0:	29 f4       	brne	.+10     	; 0x2adc <itoa+0x1c>
    2ad2:	97 fb       	bst	r25, 7
    2ad4:	1e f4       	brtc	.+6      	; 0x2adc <itoa+0x1c>
    2ad6:	90 95       	com	r25
    2ad8:	81 95       	neg	r24
    2ada:	9f 4f       	sbci	r25, 0xFF	; 255
    2adc:	64 2f       	mov	r22, r20
    2ade:	77 27       	eor	r23, r23
    2ae0:	0e 94 30 15 	call	0x2a60	; 0x2a60 <__udivmodhi4>
    2ae4:	80 5d       	subi	r24, 0xD0	; 208
    2ae6:	8a 33       	cpi	r24, 0x3A	; 58
    2ae8:	0c f0       	brlt	.+2      	; 0x2aec <itoa+0x2c>
    2aea:	89 5d       	subi	r24, 0xD9	; 217
    2aec:	81 93       	st	Z+, r24
    2aee:	cb 01       	movw	r24, r22
    2af0:	00 97       	sbiw	r24, 0x00	; 0
    2af2:	a1 f7       	brne	.-24     	; 0x2adc <itoa+0x1c>
    2af4:	16 f4       	brtc	.+4      	; 0x2afa <itoa+0x3a>
    2af6:	5d e2       	ldi	r21, 0x2D	; 45
    2af8:	51 93       	st	Z+, r21
    2afa:	10 82       	st	Z, r1
    2afc:	c9 01       	movw	r24, r18
    2afe:	0c 94 89 15 	jmp	0x2b12	; 0x2b12 <strrev>

00002b02 <__eerd_byte_m32>:
    2b02:	e1 99       	sbic	0x1c, 1	; 28
    2b04:	fe cf       	rjmp	.-4      	; 0x2b02 <__eerd_byte_m32>
    2b06:	9f bb       	out	0x1f, r25	; 31
    2b08:	8e bb       	out	0x1e, r24	; 30
    2b0a:	e0 9a       	sbi	0x1c, 0	; 28
    2b0c:	99 27       	eor	r25, r25
    2b0e:	8d b3       	in	r24, 0x1d	; 29
    2b10:	08 95       	ret

00002b12 <strrev>:
    2b12:	dc 01       	movw	r26, r24
    2b14:	fc 01       	movw	r30, r24
    2b16:	67 2f       	mov	r22, r23
    2b18:	71 91       	ld	r23, Z+
    2b1a:	77 23       	and	r23, r23
    2b1c:	e1 f7       	brne	.-8      	; 0x2b16 <strrev+0x4>
    2b1e:	32 97       	sbiw	r30, 0x02	; 2
    2b20:	04 c0       	rjmp	.+8      	; 0x2b2a <strrev+0x18>
    2b22:	7c 91       	ld	r23, X
    2b24:	6d 93       	st	X+, r22
    2b26:	70 83       	st	Z, r23
    2b28:	62 91       	ld	r22, -Z
    2b2a:	ae 17       	cp	r26, r30
    2b2c:	bf 07       	cpc	r27, r31
    2b2e:	c8 f3       	brcs	.-14     	; 0x2b22 <strrev+0x10>
    2b30:	08 95       	ret

00002b32 <_exit>:
    2b32:	f8 94       	cli

00002b34 <__stop_program>:
    2b34:	ff cf       	rjmp	.-2      	; 0x2b34 <__stop_program>
