
NokiaEDW.elf:     file format elf32-avr

Sections:
Idx Name          Size      VMA       LMA       File off  Algn
  0 .text         00000094  00000000  00000000  00000054  2**1
                  CONTENTS, ALLOC, LOAD, READONLY, CODE

Disassembly of section .text:

00000000 <__vectors>:
   0:	12 c0       	rjmp	.+36     	; 0x26 <__ctors_end>
   2:	19 c0       	rjmp	.+50     	; 0x36 <__bad_interrupt>
   4:	18 c0       	rjmp	.+48     	; 0x36 <__bad_interrupt>
   6:	17 c0       	rjmp	.+46     	; 0x36 <__bad_interrupt>
   8:	16 c0       	rjmp	.+44     	; 0x36 <__bad_interrupt>
   a:	15 c0       	rjmp	.+42     	; 0x36 <__bad_interrupt>
   c:	14 c0       	rjmp	.+40     	; 0x36 <__bad_interrupt>
   e:	13 c0       	rjmp	.+38     	; 0x36 <__bad_interrupt>
  10:	12 c0       	rjmp	.+36     	; 0x36 <__bad_interrupt>
  12:	11 c0       	rjmp	.+34     	; 0x36 <__bad_interrupt>
  14:	10 c0       	rjmp	.+32     	; 0x36 <__bad_interrupt>
  16:	0f c0       	rjmp	.+30     	; 0x36 <__bad_interrupt>
  18:	0e c0       	rjmp	.+28     	; 0x36 <__bad_interrupt>
  1a:	0d c0       	rjmp	.+26     	; 0x36 <__bad_interrupt>
  1c:	0c c0       	rjmp	.+24     	; 0x36 <__bad_interrupt>
  1e:	0b c0       	rjmp	.+22     	; 0x36 <__bad_interrupt>
  20:	0a c0       	rjmp	.+20     	; 0x36 <__bad_interrupt>
  22:	09 c0       	rjmp	.+18     	; 0x36 <__bad_interrupt>
  24:	08 c0       	rjmp	.+16     	; 0x36 <__bad_interrupt>

00000026 <__ctors_end>:
  26:	11 24       	eor	r1, r1
  28:	1f be       	out	0x3f, r1	; 63
  2a:	cf e5       	ldi	r28, 0x5F	; 95
  2c:	d4 e0       	ldi	r29, 0x04	; 4
  2e:	de bf       	out	0x3e, r29	; 62
  30:	cd bf       	out	0x3d, r28	; 61
  32:	2d d0       	rcall	.+90     	; 0x8e <main>
  34:	2d c0       	rjmp	.+90     	; 0x90 <_exit>

00000036 <__bad_interrupt>:
  36:	e4 cf       	rjmp	.-56     	; 0x0 <__vectors>

00000038 <lcd_Send>:
  38:	c7 98       	cbi	0x18, 7	; 24
  3a:	c4 98       	cbi	0x18, 4	; 24
  3c:	98 e0       	ldi	r25, 0x08	; 8
  3e:	87 ff       	sbrs	r24, 7
  40:	02 c0       	rjmp	.+4      	; 0x46 <__SREG__+0x7>
  42:	c5 9a       	sbi	0x18, 5	; 24
  44:	01 c0       	rjmp	.+2      	; 0x48 <__SREG__+0x9>
  46:	c5 98       	cbi	0x18, 5	; 24
  48:	c7 9a       	sbi	0x18, 7	; 24
  4a:	c7 98       	cbi	0x18, 7	; 24
  4c:	91 50       	subi	r25, 0x01	; 1
  4e:	11 f0       	breq	.+4      	; 0x54 <__SREG__+0x15>
  50:	88 0f       	add	r24, r24
  52:	f5 cf       	rjmp	.-22     	; 0x3e <__SP_H__>
  54:	c4 9a       	sbi	0x18, 4	; 24
  56:	08 95       	ret

00000058 <lcd_Command>:
  58:	c3 98       	cbi	0x18, 3	; 24
  5a:	ee df       	rcall	.-36     	; 0x38 <lcd_Send>
  5c:	c3 9a       	sbi	0x18, 3	; 24
  5e:	08 95       	ret

00000060 <lcd_Init>:
  60:	c2 98       	cbi	0x18, 2	; 24
  62:	00 00       	nop
  64:	00 00       	nop
  66:	c2 9a       	sbi	0x18, 2	; 24
  68:	81 e2       	ldi	r24, 0x21	; 33
  6a:	f6 df       	rcall	.-20     	; 0x58 <lcd_Command>
  6c:	88 e4       	ldi	r24, 0x48	; 72
  6e:	f4 df       	rcall	.-24     	; 0x58 <lcd_Command>
  70:	86 e0       	ldi	r24, 0x06	; 6
  72:	f2 df       	rcall	.-28     	; 0x58 <lcd_Command>
  74:	83 e1       	ldi	r24, 0x13	; 19
  76:	f0 df       	rcall	.-32     	; 0x58 <lcd_Command>
  78:	80 e2       	ldi	r24, 0x20	; 32
  7a:	ee df       	rcall	.-36     	; 0x58 <lcd_Command>
  7c:	8c e0       	ldi	r24, 0x0C	; 12
  7e:	ec df       	rcall	.-40     	; 0x58 <lcd_Command>
  80:	80 e8       	ldi	r24, 0x80	; 128
  82:	90 e0       	ldi	r25, 0x00	; 0
  84:	e9 df       	rcall	.-46     	; 0x58 <lcd_Command>
  86:	80 e4       	ldi	r24, 0x40	; 64
  88:	90 e0       	ldi	r25, 0x00	; 0
  8a:	e6 df       	rcall	.-52     	; 0x58 <lcd_Command>
  8c:	08 95       	ret

0000008e <main>:
  8e:	ff cf       	rjmp	.-2      	; 0x8e <main>

00000090 <_exit>:
  90:	f8 94       	cli

00000092 <__stop_program>:
  92:	ff cf       	rjmp	.-2      	; 0x92 <__stop_program>
