
Rejestr.elf:     file format elf32-avr

Sections:
Idx Name          Size      VMA       LMA       File off  Algn
  0 .text         00001b96  00000000  00000000  00000074  2**1
                  CONTENTS, ALLOC, LOAD, READONLY, CODE
  1 .bss          0000012c  00800060  00800060  00001c0a  2**0
                  ALLOC

Disassembly of section .text:

00000000 <__vectors>:
       0:	0c 94 ba 00 	jmp	0x174	; 0x174 <__ctors_end>
       4:	0c 94 cc 00 	jmp	0x198	; 0x198 <__bad_interrupt>
       8:	0c 94 cc 00 	jmp	0x198	; 0x198 <__bad_interrupt>
       c:	0c 94 cc 00 	jmp	0x198	; 0x198 <__bad_interrupt>
      10:	0c 94 ee 01 	jmp	0x3dc	; 0x3dc <__vector_4>
      14:	0c 94 cc 00 	jmp	0x198	; 0x198 <__bad_interrupt>
      18:	0c 94 cc 00 	jmp	0x198	; 0x198 <__bad_interrupt>
      1c:	0c 94 cc 00 	jmp	0x198	; 0x198 <__bad_interrupt>
      20:	0c 94 cc 00 	jmp	0x198	; 0x198 <__bad_interrupt>
      24:	0c 94 cc 00 	jmp	0x198	; 0x198 <__bad_interrupt>
      28:	0c 94 cc 00 	jmp	0x198	; 0x198 <__bad_interrupt>
      2c:	0c 94 cc 00 	jmp	0x198	; 0x198 <__bad_interrupt>
      30:	0c 94 cc 00 	jmp	0x198	; 0x198 <__bad_interrupt>
      34:	0c 94 cc 00 	jmp	0x198	; 0x198 <__bad_interrupt>
      38:	0c 94 cc 00 	jmp	0x198	; 0x198 <__bad_interrupt>
      3c:	0c 94 cc 00 	jmp	0x198	; 0x198 <__bad_interrupt>
      40:	0c 94 cc 00 	jmp	0x198	; 0x198 <__bad_interrupt>
      44:	0c 94 cc 00 	jmp	0x198	; 0x198 <__bad_interrupt>
      48:	0c 94 cc 00 	jmp	0x198	; 0x198 <__bad_interrupt>
      4c:	0c 94 cc 00 	jmp	0x198	; 0x198 <__bad_interrupt>
      50:	0c 94 cc 00 	jmp	0x198	; 0x198 <__bad_interrupt>

00000054 <tabela1>:
      54:	0e 02 0e 1f 08 1f 0c 1f 0e 0e 0e 0f 0e 07 1f 1f     ................
      64:	0e 11 07 1c 11 01 11 11 0e 0f 0e 0f 1e 1f 11 11     ................
      74:	11 11 11 1f                                         ....

00000078 <tabela2>:
      78:	11 03 11 08 0c 01 02 11 11 11 11 11 11 09 01 01     ................
      88:	11 11 02 08 09 01 1b 11 11 11 11 11 01 04 11 11     ................
      98:	11 11 11 10                                         ....

0000009c <tabela3>:
      9c:	11 02 10 04 0a 0f 01 10 11 11 11 11 01 11 01 01     ................
      ac:	01 11 02 08 05 01 15 13 11 11 11 11 01 04 11 11     ................
      bc:	11 0a 11 08                                         ....

000000c0 <tabela4>:
      c0:	11 02 08 08 09 10 0f 08 0e 1e 11 0f 01 11 0f 0f     ................
      d0:	1d 1f 02 08 03 01 15 15 11 0f 11 0f 0e 04 11 11     ................
      e0:	15 04 0a 04                                         ....

000000e4 <tabela5>:
      e4:	11 02 04 10 1f 10 11 04 11 10 1f 11 01 11 01 01     ................
      f4:	11 11 02 08 05 01 11 19 11 01 15 05 10 04 11 11     ................
     104:	15 0a 04 02                                         ....

00000108 <tabela6>:
     108:	11 02 02 11 08 11 11 04 11 08 11 11 11 09 01 01     ................
     118:	10 11 02 09 09 01 11 11 11 01 09 09 10 04 11 0a     ................
     128:	15 11 04 01                                         ....

0000012c <tabela7>:
     12c:	0e 07 1f 0e 08 0e 0e 04 0e 06 11 0f 0e 07 1f 01     ................
     13c:	1e 11 07 06 11 1f 11 11 0e 01 16 11 0f 04 0e 04     ................
     14c:	0a 11 04 1f                                         ....

00000150 <tabela8>:
	...

00000174 <__ctors_end>:
     174:	11 24       	eor	r1, r1
     176:	1f be       	out	0x3f, r1	; 63
     178:	cf e5       	ldi	r28, 0x5F	; 95
     17a:	d8 e0       	ldi	r29, 0x08	; 8
     17c:	de bf       	out	0x3e, r29	; 62
     17e:	cd bf       	out	0x3d, r28	; 61

00000180 <__do_clear_bss>:
     180:	11 e0       	ldi	r17, 0x01	; 1
     182:	a0 e6       	ldi	r26, 0x60	; 96
     184:	b0 e0       	ldi	r27, 0x00	; 0
     186:	01 c0       	rjmp	.+2      	; 0x18a <.do_clear_bss_start>

00000188 <.do_clear_bss_loop>:
     188:	1d 92       	st	X+, r1

0000018a <.do_clear_bss_start>:
     18a:	ac 38       	cpi	r26, 0x8C	; 140
     18c:	b1 07       	cpc	r27, r17
     18e:	e1 f7       	brne	.-8      	; 0x188 <.do_clear_bss_loop>
     190:	0e 94 03 01 	call	0x206	; 0x206 <main>
     194:	0c 94 c9 0d 	jmp	0x1b92	; 0x1b92 <_exit>

00000198 <__bad_interrupt>:
     198:	0c 94 00 00 	jmp	0	; 0x0 <__vectors>

0000019c <SendSpi>:
     19c:	9b 01       	movw	r18, r22
     19e:	ac 01       	movw	r20, r24
     1a0:	85 2f       	mov	r24, r21
     1a2:	99 27       	eor	r25, r25
     1a4:	aa 27       	eor	r26, r26
     1a6:	bb 27       	eor	r27, r27
     1a8:	8f b9       	out	0x0f, r24	; 15
     1aa:	77 9b       	sbis	0x0e, 7	; 14
     1ac:	fe cf       	rjmp	.-4      	; 0x1aa <SendSpi+0xe>
     1ae:	ca 01       	movw	r24, r20
     1b0:	aa 27       	eor	r26, r26
     1b2:	bb 27       	eor	r27, r27
     1b4:	8f b9       	out	0x0f, r24	; 15
     1b6:	77 9b       	sbis	0x0e, 7	; 14
     1b8:	fe cf       	rjmp	.-4      	; 0x1b6 <SendSpi+0x1a>
     1ba:	bb 27       	eor	r27, r27
     1bc:	a5 2f       	mov	r26, r21
     1be:	94 2f       	mov	r25, r20
     1c0:	83 2f       	mov	r24, r19
     1c2:	8f b9       	out	0x0f, r24	; 15
     1c4:	77 9b       	sbis	0x0e, 7	; 14
     1c6:	fe cf       	rjmp	.-4      	; 0x1c4 <SendSpi+0x28>
     1c8:	2f b9       	out	0x0f, r18	; 15
     1ca:	77 9b       	sbis	0x0e, 7	; 14
     1cc:	fe cf       	rjmp	.-4      	; 0x1ca <SendSpi+0x2e>
     1ce:	c4 9a       	sbi	0x18, 4	; 24
     1d0:	83 e0       	ldi	r24, 0x03	; 3
     1d2:	8a 95       	dec	r24
     1d4:	f1 f7       	brne	.-4      	; 0x1d2 <SendSpi+0x36>
     1d6:	c4 98       	cbi	0x18, 4	; 24
     1d8:	08 95       	ret

000001da <InitSpi>:
     1da:	87 b3       	in	r24, 0x17	; 23
     1dc:	80 6b       	ori	r24, 0xB0	; 176
     1de:	87 bb       	out	0x17, r24	; 23
     1e0:	8d b1       	in	r24, 0x0d	; 13
     1e2:	80 65       	ori	r24, 0x50	; 80
     1e4:	8d b9       	out	0x0d, r24	; 13
     1e6:	70 9a       	sbi	0x0e, 0	; 14
     1e8:	8f ef       	ldi	r24, 0xFF	; 255
     1ea:	81 bb       	out	0x11, r24	; 17
     1ec:	82 bb       	out	0x12, r24	; 18
     1ee:	08 95       	ret

000001f0 <InitTimer>:
     1f0:	85 b5       	in	r24, 0x25	; 37
     1f2:	88 60       	ori	r24, 0x08	; 8
     1f4:	85 bd       	out	0x25, r24	; 37
     1f6:	85 b5       	in	r24, 0x25	; 37
     1f8:	86 60       	ori	r24, 0x06	; 6
     1fa:	85 bd       	out	0x25, r24	; 37
     1fc:	84 e6       	ldi	r24, 0x64	; 100
     1fe:	83 bd       	out	0x23, r24	; 35
     200:	80 e8       	ldi	r24, 0x80	; 128
     202:	89 bf       	out	0x39, r24	; 57
     204:	08 95       	ret

00000206 <main>:
     206:	0e 94 ed 00 	call	0x1da	; 0x1da <InitSpi>
     20a:	0e 94 f8 00 	call	0x1f0	; 0x1f0 <InitTimer>
     20e:	60 e0       	ldi	r22, 0x00	; 0
     210:	70 e0       	ldi	r23, 0x00	; 0
     212:	80 e0       	ldi	r24, 0x00	; 0
     214:	90 e0       	ldi	r25, 0x00	; 0
     216:	0e 94 ce 00 	call	0x19c	; 0x19c <SendSpi>
     21a:	78 94       	sei
     21c:	10 92 8b 00 	sts	0x008B, r1
     220:	8a e0       	ldi	r24, 0x0A	; 10
     222:	90 e0       	ldi	r25, 0x00	; 0
     224:	a0 e0       	ldi	r26, 0x00	; 0
     226:	b0 e0       	ldi	r27, 0x00	; 0
     228:	80 93 6f 00 	sts	0x006F, r24
     22c:	90 93 70 00 	sts	0x0070, r25
     230:	a0 93 71 00 	sts	0x0071, r26
     234:	b0 93 72 00 	sts	0x0072, r27
     238:	8b e0       	ldi	r24, 0x0B	; 11
     23a:	90 e0       	ldi	r25, 0x00	; 0
     23c:	a0 e0       	ldi	r26, 0x00	; 0
     23e:	b0 e0       	ldi	r27, 0x00	; 0
     240:	80 93 73 00 	sts	0x0073, r24
     244:	90 93 74 00 	sts	0x0074, r25
     248:	a0 93 75 00 	sts	0x0075, r26
     24c:	b0 93 76 00 	sts	0x0076, r27
     250:	8c e0       	ldi	r24, 0x0C	; 12
     252:	90 e0       	ldi	r25, 0x00	; 0
     254:	a0 e0       	ldi	r26, 0x00	; 0
     256:	b0 e0       	ldi	r27, 0x00	; 0
     258:	80 93 7b 00 	sts	0x007B, r24
     25c:	90 93 7c 00 	sts	0x007C, r25
     260:	a0 93 7d 00 	sts	0x007D, r26
     264:	b0 93 7e 00 	sts	0x007E, r27
     268:	8d e0       	ldi	r24, 0x0D	; 13
     26a:	90 e0       	ldi	r25, 0x00	; 0
     26c:	a0 e0       	ldi	r26, 0x00	; 0
     26e:	b0 e0       	ldi	r27, 0x00	; 0
     270:	80 93 7f 00 	sts	0x007F, r24
     274:	90 93 80 00 	sts	0x0080, r25
     278:	a0 93 81 00 	sts	0x0081, r26
     27c:	b0 93 82 00 	sts	0x0082, r27
     280:	8e e0       	ldi	r24, 0x0E	; 14
     282:	90 e0       	ldi	r25, 0x00	; 0
     284:	a0 e0       	ldi	r26, 0x00	; 0
     286:	b0 e0       	ldi	r27, 0x00	; 0
     288:	80 93 77 00 	sts	0x0077, r24
     28c:	90 93 78 00 	sts	0x0078, r25
     290:	a0 93 79 00 	sts	0x0079, r26
     294:	b0 93 7a 00 	sts	0x007A, r27
     298:	8f e0       	ldi	r24, 0x0F	; 15
     29a:	90 e0       	ldi	r25, 0x00	; 0
     29c:	a0 e0       	ldi	r26, 0x00	; 0
     29e:	b0 e0       	ldi	r27, 0x00	; 0
     2a0:	80 93 67 00 	sts	0x0067, r24
     2a4:	90 93 68 00 	sts	0x0068, r25
     2a8:	a0 93 69 00 	sts	0x0069, r26
     2ac:	b0 93 6a 00 	sts	0x006A, r27
     2b0:	20 e0       	ldi	r18, 0x00	; 0
     2b2:	44 e1       	ldi	r20, 0x14	; 20
     2b4:	51 e0       	ldi	r21, 0x01	; 1
     2b6:	20 93 61 00 	sts	0x0061, r18
     2ba:	88 e8       	ldi	r24, 0x88	; 136
     2bc:	93 e1       	ldi	r25, 0x13	; 19
     2be:	fa 01       	movw	r30, r20
     2c0:	31 97       	sbiw	r30, 0x01	; 1
     2c2:	f1 f7       	brne	.-4      	; 0x2c0 <main+0xba>
     2c4:	01 97       	sbiw	r24, 0x01	; 1
     2c6:	d9 f7       	brne	.-10     	; 0x2be <main+0xb8>
     2c8:	2f 5f       	subi	r18, 0xFF	; 255
     2ca:	2e 31       	cpi	r18, 0x1E	; 30
     2cc:	a0 f3       	brcs	.-24     	; 0x2b6 <main+0xb0>
     2ce:	20 e0       	ldi	r18, 0x00	; 0
     2d0:	f2 cf       	rjmp	.-28     	; 0x2b6 <main+0xb0>

000002d2 <pixel>:
     2d2:	48 2f       	mov	r20, r24
     2d4:	20 e0       	ldi	r18, 0x00	; 0
     2d6:	30 e0       	ldi	r19, 0x00	; 0
     2d8:	66 23       	and	r22, r22
     2da:	11 f4       	brne	.+4      	; 0x2e0 <pixel+0xe>
     2dc:	21 e0       	ldi	r18, 0x01	; 1
     2de:	30 e0       	ldi	r19, 0x00	; 0
     2e0:	80 e0       	ldi	r24, 0x00	; 0
     2e2:	90 e0       	ldi	r25, 0x00	; 0
     2e4:	44 23       	and	r20, r20
     2e6:	11 f4       	brne	.+4      	; 0x2ec <pixel+0x1a>
     2e8:	81 e0       	ldi	r24, 0x01	; 1
     2ea:	90 e0       	ldi	r25, 0x00	; 0
     2ec:	28 2b       	or	r18, r24
     2ee:	39 2b       	or	r19, r25
     2f0:	80 e0       	ldi	r24, 0x00	; 0
     2f2:	49 30       	cpi	r20, 0x09	; 9
     2f4:	08 f0       	brcs	.+2      	; 0x2f8 <pixel+0x26>
     2f6:	81 e0       	ldi	r24, 0x01	; 1
     2f8:	90 e0       	ldi	r25, 0x00	; 0
     2fa:	61 32       	cpi	r22, 0x21	; 33
     2fc:	08 f0       	brcs	.+2      	; 0x300 <pixel+0x2e>
     2fe:	91 e0       	ldi	r25, 0x01	; 1
     300:	89 2b       	or	r24, r25
     302:	90 e0       	ldi	r25, 0x00	; 0
     304:	28 2b       	or	r18, r24
     306:	39 2b       	or	r19, r25
     308:	23 2b       	or	r18, r19
     30a:	19 f0       	breq	.+6      	; 0x312 <pixel+0x40>
     30c:	41 e0       	ldi	r20, 0x01	; 1
     30e:	61 e0       	ldi	r22, 0x01	; 1
     310:	02 c0       	rjmp	.+4      	; 0x316 <pixel+0x44>
     312:	41 30       	cpi	r20, 0x01	; 1
     314:	31 f4       	brne	.+12     	; 0x322 <pixel+0x50>
     316:	e6 2f       	mov	r30, r22
     318:	f0 e0       	ldi	r31, 0x00	; 0
     31a:	e5 57       	subi	r30, 0x75	; 117
     31c:	ff 4f       	sbci	r31, 0xFF	; 255
     31e:	81 e0       	ldi	r24, 0x01	; 1
     320:	80 83       	st	Z, r24
     322:	42 30       	cpi	r20, 0x02	; 2
     324:	39 f4       	brne	.+14     	; 0x334 <pixel+0x62>
     326:	e6 2f       	mov	r30, r22
     328:	f0 e0       	ldi	r31, 0x00	; 0
     32a:	e4 57       	subi	r30, 0x74	; 116
     32c:	ff 4f       	sbci	r31, 0xFF	; 255
     32e:	81 e0       	ldi	r24, 0x01	; 1
     330:	87 8f       	std	Z+31, r24	; 0x1f
     332:	08 95       	ret
     334:	43 30       	cpi	r20, 0x03	; 3
     336:	29 f4       	brne	.+10     	; 0x342 <pixel+0x70>
     338:	e6 2f       	mov	r30, r22
     33a:	f0 e0       	ldi	r31, 0x00	; 0
     33c:	e5 53       	subi	r30, 0x35	; 53
     33e:	ff 4f       	sbci	r31, 0xFF	; 255
     340:	1b c0       	rjmp	.+54     	; 0x378 <pixel+0xa6>
     342:	44 30       	cpi	r20, 0x04	; 4
     344:	29 f4       	brne	.+10     	; 0x350 <pixel+0x7e>
     346:	e6 2f       	mov	r30, r22
     348:	f0 e0       	ldi	r31, 0x00	; 0
     34a:	e5 51       	subi	r30, 0x15	; 21
     34c:	ff 4f       	sbci	r31, 0xFF	; 255
     34e:	14 c0       	rjmp	.+40     	; 0x378 <pixel+0xa6>
     350:	45 30       	cpi	r20, 0x05	; 5
     352:	29 f4       	brne	.+10     	; 0x35e <pixel+0x8c>
     354:	e6 2f       	mov	r30, r22
     356:	f0 e0       	ldi	r31, 0x00	; 0
     358:	e5 5f       	subi	r30, 0xF5	; 245
     35a:	fe 4f       	sbci	r31, 0xFE	; 254
     35c:	0d c0       	rjmp	.+26     	; 0x378 <pixel+0xa6>
     35e:	46 30       	cpi	r20, 0x06	; 6
     360:	29 f4       	brne	.+10     	; 0x36c <pixel+0x9a>
     362:	e6 2f       	mov	r30, r22
     364:	f0 e0       	ldi	r31, 0x00	; 0
     366:	e5 5d       	subi	r30, 0xD5	; 213
     368:	fe 4f       	sbci	r31, 0xFE	; 254
     36a:	06 c0       	rjmp	.+12     	; 0x378 <pixel+0xa6>
     36c:	47 30       	cpi	r20, 0x07	; 7
     36e:	39 f4       	brne	.+14     	; 0x37e <pixel+0xac>
     370:	e6 2f       	mov	r30, r22
     372:	f0 e0       	ldi	r31, 0x00	; 0
     374:	e5 5b       	subi	r30, 0xB5	; 181
     376:	fe 4f       	sbci	r31, 0xFE	; 254
     378:	81 e0       	ldi	r24, 0x01	; 1
     37a:	80 83       	st	Z, r24
     37c:	08 95       	ret
     37e:	48 30       	cpi	r20, 0x08	; 8
     380:	31 f4       	brne	.+12     	; 0x38e <pixel+0xbc>
     382:	e6 2f       	mov	r30, r22
     384:	f0 e0       	ldi	r31, 0x00	; 0
     386:	e5 59       	subi	r30, 0x95	; 149
     388:	fe 4f       	sbci	r31, 0xFE	; 254
     38a:	81 e0       	ldi	r24, 0x01	; 1
     38c:	80 83       	st	Z, r24
     38e:	08 95       	ret

00000390 <przesuniecie>:
     390:	0f 93       	push	r16
     392:	1f 93       	push	r17
     394:	8b 01       	movw	r16, r22
     396:	9c 01       	movw	r18, r24
     398:	64 2f       	mov	r22, r20
     39a:	77 27       	eor	r23, r23
     39c:	67 fd       	sbrc	r22, 7
     39e:	70 95       	com	r23
     3a0:	47 fd       	sbrc	r20, 7
     3a2:	0a c0       	rjmp	.+20     	; 0x3b8 <przesuniecie+0x28>
     3a4:	a9 01       	movw	r20, r18
     3a6:	98 01       	movw	r18, r16
     3a8:	04 c0       	rjmp	.+8      	; 0x3b2 <przesuniecie+0x22>
     3aa:	22 0f       	add	r18, r18
     3ac:	33 1f       	adc	r19, r19
     3ae:	44 1f       	adc	r20, r20
     3b0:	55 1f       	adc	r21, r21
     3b2:	6a 95       	dec	r22
     3b4:	d2 f7       	brpl	.-12     	; 0x3aa <przesuniecie+0x1a>
     3b6:	0d c0       	rjmp	.+26     	; 0x3d2 <przesuniecie+0x42>
     3b8:	88 27       	eor	r24, r24
     3ba:	99 27       	eor	r25, r25
     3bc:	86 1b       	sub	r24, r22
     3be:	97 0b       	sbc	r25, r23
     3c0:	a9 01       	movw	r20, r18
     3c2:	98 01       	movw	r18, r16
     3c4:	04 c0       	rjmp	.+8      	; 0x3ce <przesuniecie+0x3e>
     3c6:	56 95       	lsr	r21
     3c8:	47 95       	ror	r20
     3ca:	37 95       	ror	r19
     3cc:	27 95       	ror	r18
     3ce:	8a 95       	dec	r24
     3d0:	d2 f7       	brpl	.-12     	; 0x3c6 <przesuniecie+0x36>
     3d2:	b9 01       	movw	r22, r18
     3d4:	ca 01       	movw	r24, r20
     3d6:	1f 91       	pop	r17
     3d8:	0f 91       	pop	r16
     3da:	08 95       	ret

000003dc <__vector_4>:
     3dc:	1f 92       	push	r1
     3de:	0f 92       	push	r0
     3e0:	0f b6       	in	r0, 0x3f	; 63
     3e2:	0f 92       	push	r0
     3e4:	11 24       	eor	r1, r1
     3e6:	2f 92       	push	r2
     3e8:	3f 92       	push	r3
     3ea:	4f 92       	push	r4
     3ec:	5f 92       	push	r5
     3ee:	6f 92       	push	r6
     3f0:	7f 92       	push	r7
     3f2:	8f 92       	push	r8
     3f4:	9f 92       	push	r9
     3f6:	af 92       	push	r10
     3f8:	bf 92       	push	r11
     3fa:	cf 92       	push	r12
     3fc:	df 92       	push	r13
     3fe:	ef 92       	push	r14
     400:	ff 92       	push	r15
     402:	0f 93       	push	r16
     404:	1f 93       	push	r17
     406:	2f 93       	push	r18
     408:	3f 93       	push	r19
     40a:	4f 93       	push	r20
     40c:	5f 93       	push	r21
     40e:	6f 93       	push	r22
     410:	7f 93       	push	r23
     412:	8f 93       	push	r24
     414:	9f 93       	push	r25
     416:	af 93       	push	r26
     418:	bf 93       	push	r27
     41a:	ef 93       	push	r30
     41c:	ff 93       	push	r31
     41e:	df 93       	push	r29
     420:	cf 93       	push	r28
     422:	cd b7       	in	r28, 0x3d	; 61
     424:	de b7       	in	r29, 0x3e	; 62
     426:	a4 97       	sbiw	r28, 0x24	; 36
     428:	de bf       	out	0x3e, r29	; 62
     42a:	cd bf       	out	0x3d, r28	; 61
     42c:	80 91 8b 00 	lds	r24, 0x008B
     430:	90 91 62 00 	lds	r25, 0x0062
     434:	81 30       	cpi	r24, 0x01	; 1
     436:	09 f0       	breq	.+2      	; 0x43a <__vector_4+0x5e>
     438:	62 c1       	rjmp	.+708    	; 0x6fe <__vector_4+0x322>
     43a:	93 30       	cpi	r25, 0x03	; 3
     43c:	09 f4       	brne	.+2      	; 0x440 <__vector_4+0x64>
     43e:	91 c0       	rjmp	.+290    	; 0x562 <__vector_4+0x186>
     440:	94 30       	cpi	r25, 0x04	; 4
     442:	30 f4       	brcc	.+12     	; 0x450 <__vector_4+0x74>
     444:	91 30       	cpi	r25, 0x01	; 1
     446:	d9 f1       	breq	.+118    	; 0x4be <__vector_4+0xe2>
     448:	92 30       	cpi	r25, 0x02	; 2
     44a:	08 f0       	brcs	.+2      	; 0x44e <__vector_4+0x72>
     44c:	61 c0       	rjmp	.+194    	; 0x510 <__vector_4+0x134>
     44e:	0e c0       	rjmp	.+28     	; 0x46c <__vector_4+0x90>
     450:	95 30       	cpi	r25, 0x05	; 5
     452:	09 f4       	brne	.+2      	; 0x456 <__vector_4+0x7a>
     454:	d7 c0       	rjmp	.+430    	; 0x604 <__vector_4+0x228>
     456:	95 30       	cpi	r25, 0x05	; 5
     458:	08 f4       	brcc	.+2      	; 0x45c <__vector_4+0x80>
     45a:	ab c0       	rjmp	.+342    	; 0x5b2 <__vector_4+0x1d6>
     45c:	96 30       	cpi	r25, 0x06	; 6
     45e:	09 f4       	brne	.+2      	; 0x462 <__vector_4+0x86>
     460:	fa c0       	rjmp	.+500    	; 0x656 <__vector_4+0x27a>
     462:	97 30       	cpi	r25, 0x07	; 7
     464:	11 f0       	breq	.+4      	; 0x46a <__vector_4+0x8e>
     466:	0c 94 70 0d 	jmp	0x1ae0	; 0x1ae0 <__stack+0x1281>
     46a:	1e c1       	rjmp	.+572    	; 0x6a8 <__vector_4+0x2cc>
     46c:	5c e8       	ldi	r21, 0x8C	; 140
     46e:	85 2e       	mov	r8, r21
     470:	50 e0       	ldi	r21, 0x00	; 0
     472:	95 2e       	mov	r9, r21
     474:	aa 24       	eor	r10, r10
     476:	bb 24       	eor	r11, r11
     478:	65 01       	movw	r12, r10
     47a:	41 e0       	ldi	r20, 0x01	; 1
     47c:	e4 2e       	mov	r14, r20
     47e:	f1 2c       	mov	r15, r1
     480:	01 2d       	mov	r16, r1
     482:	11 2d       	mov	r17, r1
     484:	d4 01       	movw	r26, r8
     486:	2d 91       	ld	r18, X+
     488:	4d 01       	movw	r8, r26
     48a:	30 e0       	ldi	r19, 0x00	; 0
     48c:	40 e0       	ldi	r20, 0x00	; 0
     48e:	50 e0       	ldi	r21, 0x00	; 0
     490:	c8 01       	movw	r24, r16
     492:	b7 01       	movw	r22, r14
     494:	0e 94 aa 0d 	call	0x1b54	; 0x1b54 <__mulsi3>
     498:	a6 0e       	add	r10, r22
     49a:	b7 1e       	adc	r11, r23
     49c:	c8 1e       	adc	r12, r24
     49e:	d9 1e       	adc	r13, r25
     4a0:	ee 0c       	add	r14, r14
     4a2:	ff 1c       	adc	r15, r15
     4a4:	00 1f       	adc	r16, r16
     4a6:	11 1f       	adc	r17, r17
     4a8:	bc ea       	ldi	r27, 0xAC	; 172
     4aa:	8b 16       	cp	r8, r27
     4ac:	b0 e0       	ldi	r27, 0x00	; 0
     4ae:	9b 06       	cpc	r9, r27
     4b0:	49 f7       	brne	.-46     	; 0x484 <__vector_4+0xa8>
     4b2:	c6 01       	movw	r24, r12
     4b4:	b5 01       	movw	r22, r10
     4b6:	0e 94 ce 00 	call	0x19c	; 0x19c <SendSpi>
     4ba:	8e ef       	ldi	r24, 0xFE	; 254
     4bc:	1d c1       	rjmp	.+570    	; 0x6f8 <__vector_4+0x31c>
     4be:	2c ea       	ldi	r18, 0xAC	; 172
     4c0:	82 2e       	mov	r8, r18
     4c2:	20 e0       	ldi	r18, 0x00	; 0
     4c4:	92 2e       	mov	r9, r18
     4c6:	aa 24       	eor	r10, r10
     4c8:	bb 24       	eor	r11, r11
     4ca:	65 01       	movw	r12, r10
     4cc:	91 e0       	ldi	r25, 0x01	; 1
     4ce:	e9 2e       	mov	r14, r25
     4d0:	f1 2c       	mov	r15, r1
     4d2:	01 2d       	mov	r16, r1
     4d4:	11 2d       	mov	r17, r1
     4d6:	f4 01       	movw	r30, r8
     4d8:	21 91       	ld	r18, Z+
     4da:	4f 01       	movw	r8, r30
     4dc:	30 e0       	ldi	r19, 0x00	; 0
     4de:	40 e0       	ldi	r20, 0x00	; 0
     4e0:	50 e0       	ldi	r21, 0x00	; 0
     4e2:	c8 01       	movw	r24, r16
     4e4:	b7 01       	movw	r22, r14
     4e6:	0e 94 aa 0d 	call	0x1b54	; 0x1b54 <__mulsi3>
     4ea:	a6 0e       	add	r10, r22
     4ec:	b7 1e       	adc	r11, r23
     4ee:	c8 1e       	adc	r12, r24
     4f0:	d9 1e       	adc	r13, r25
     4f2:	ee 0c       	add	r14, r14
     4f4:	ff 1c       	adc	r15, r15
     4f6:	00 1f       	adc	r16, r16
     4f8:	11 1f       	adc	r17, r17
     4fa:	fc ec       	ldi	r31, 0xCC	; 204
     4fc:	8f 16       	cp	r8, r31
     4fe:	f0 e0       	ldi	r31, 0x00	; 0
     500:	9f 06       	cpc	r9, r31
     502:	49 f7       	brne	.-46     	; 0x4d6 <__vector_4+0xfa>
     504:	c6 01       	movw	r24, r12
     506:	b5 01       	movw	r22, r10
     508:	0e 94 ce 00 	call	0x19c	; 0x19c <SendSpi>
     50c:	8d ef       	ldi	r24, 0xFD	; 253
     50e:	f4 c0       	rjmp	.+488    	; 0x6f8 <__vector_4+0x31c>
     510:	bc ec       	ldi	r27, 0xCC	; 204
     512:	8b 2e       	mov	r8, r27
     514:	b0 e0       	ldi	r27, 0x00	; 0
     516:	9b 2e       	mov	r9, r27
     518:	aa 24       	eor	r10, r10
     51a:	bb 24       	eor	r11, r11
     51c:	65 01       	movw	r12, r10
     51e:	a1 e0       	ldi	r26, 0x01	; 1
     520:	ea 2e       	mov	r14, r26
     522:	f1 2c       	mov	r15, r1
     524:	01 2d       	mov	r16, r1
     526:	11 2d       	mov	r17, r1
     528:	d4 01       	movw	r26, r8
     52a:	2d 91       	ld	r18, X+
     52c:	4d 01       	movw	r8, r26
     52e:	30 e0       	ldi	r19, 0x00	; 0
     530:	40 e0       	ldi	r20, 0x00	; 0
     532:	50 e0       	ldi	r21, 0x00	; 0
     534:	c8 01       	movw	r24, r16
     536:	b7 01       	movw	r22, r14
     538:	0e 94 aa 0d 	call	0x1b54	; 0x1b54 <__mulsi3>
     53c:	a6 0e       	add	r10, r22
     53e:	b7 1e       	adc	r11, r23
     540:	c8 1e       	adc	r12, r24
     542:	d9 1e       	adc	r13, r25
     544:	ee 0c       	add	r14, r14
     546:	ff 1c       	adc	r15, r15
     548:	00 1f       	adc	r16, r16
     54a:	11 1f       	adc	r17, r17
     54c:	bc ee       	ldi	r27, 0xEC	; 236
     54e:	8b 16       	cp	r8, r27
     550:	b0 e0       	ldi	r27, 0x00	; 0
     552:	9b 06       	cpc	r9, r27
     554:	49 f7       	brne	.-46     	; 0x528 <__vector_4+0x14c>
     556:	c6 01       	movw	r24, r12
     558:	b5 01       	movw	r22, r10
     55a:	0e 94 ce 00 	call	0x19c	; 0x19c <SendSpi>
     55e:	8b ef       	ldi	r24, 0xFB	; 251
     560:	cb c0       	rjmp	.+406    	; 0x6f8 <__vector_4+0x31c>
     562:	aa 24       	eor	r10, r10
     564:	bb 24       	eor	r11, r11
     566:	65 01       	movw	r12, r10
     568:	e1 e0       	ldi	r30, 0x01	; 1
     56a:	ee 2e       	mov	r14, r30
     56c:	f1 2c       	mov	r15, r1
     56e:	01 2d       	mov	r16, r1
     570:	11 2d       	mov	r17, r1
     572:	70 e6       	ldi	r23, 0x60	; 96
     574:	97 2e       	mov	r9, r23
     576:	e9 2d       	mov	r30, r9
     578:	f0 e0       	ldi	r31, 0x00	; 0
     57a:	e4 57       	subi	r30, 0x74	; 116
     57c:	ff 4f       	sbci	r31, 0xFF	; 255
     57e:	60 81       	ld	r22, Z
     580:	70 e0       	ldi	r23, 0x00	; 0
     582:	80 e0       	ldi	r24, 0x00	; 0
     584:	90 e0       	ldi	r25, 0x00	; 0
     586:	a8 01       	movw	r20, r16
     588:	97 01       	movw	r18, r14
     58a:	0e 94 aa 0d 	call	0x1b54	; 0x1b54 <__mulsi3>
     58e:	a6 0e       	add	r10, r22
     590:	b7 1e       	adc	r11, r23
     592:	c8 1e       	adc	r12, r24
     594:	d9 1e       	adc	r13, r25
     596:	ee 0c       	add	r14, r14
     598:	ff 1c       	adc	r15, r15
     59a:	00 1f       	adc	r16, r16
     59c:	11 1f       	adc	r17, r17
     59e:	93 94       	inc	r9
     5a0:	e0 e8       	ldi	r30, 0x80	; 128
     5a2:	9e 16       	cp	r9, r30
     5a4:	41 f7       	brne	.-48     	; 0x576 <__vector_4+0x19a>
     5a6:	c6 01       	movw	r24, r12
     5a8:	b5 01       	movw	r22, r10
     5aa:	0e 94 ce 00 	call	0x19c	; 0x19c <SendSpi>
     5ae:	87 ef       	ldi	r24, 0xF7	; 247
     5b0:	a3 c0       	rjmp	.+326    	; 0x6f8 <__vector_4+0x31c>
     5b2:	5c e0       	ldi	r21, 0x0C	; 12
     5b4:	85 2e       	mov	r8, r21
     5b6:	51 e0       	ldi	r21, 0x01	; 1
     5b8:	95 2e       	mov	r9, r21
     5ba:	aa 24       	eor	r10, r10
     5bc:	bb 24       	eor	r11, r11
     5be:	65 01       	movw	r12, r10
     5c0:	41 e0       	ldi	r20, 0x01	; 1
     5c2:	e4 2e       	mov	r14, r20
     5c4:	f1 2c       	mov	r15, r1
     5c6:	01 2d       	mov	r16, r1
     5c8:	11 2d       	mov	r17, r1
     5ca:	d4 01       	movw	r26, r8
     5cc:	2d 91       	ld	r18, X+
     5ce:	4d 01       	movw	r8, r26
     5d0:	30 e0       	ldi	r19, 0x00	; 0
     5d2:	40 e0       	ldi	r20, 0x00	; 0
     5d4:	50 e0       	ldi	r21, 0x00	; 0
     5d6:	c8 01       	movw	r24, r16
     5d8:	b7 01       	movw	r22, r14
     5da:	0e 94 aa 0d 	call	0x1b54	; 0x1b54 <__mulsi3>
     5de:	a6 0e       	add	r10, r22
     5e0:	b7 1e       	adc	r11, r23
     5e2:	c8 1e       	adc	r12, r24
     5e4:	d9 1e       	adc	r13, r25
     5e6:	ee 0c       	add	r14, r14
     5e8:	ff 1c       	adc	r15, r15
     5ea:	00 1f       	adc	r16, r16
     5ec:	11 1f       	adc	r17, r17
     5ee:	bc e2       	ldi	r27, 0x2C	; 44
     5f0:	8b 16       	cp	r8, r27
     5f2:	b1 e0       	ldi	r27, 0x01	; 1
     5f4:	9b 06       	cpc	r9, r27
     5f6:	49 f7       	brne	.-46     	; 0x5ca <__vector_4+0x1ee>
     5f8:	c6 01       	movw	r24, r12
     5fa:	b5 01       	movw	r22, r10
     5fc:	0e 94 ce 00 	call	0x19c	; 0x19c <SendSpi>
     600:	8f ee       	ldi	r24, 0xEF	; 239
     602:	7a c0       	rjmp	.+244    	; 0x6f8 <__vector_4+0x31c>
     604:	2c e2       	ldi	r18, 0x2C	; 44
     606:	82 2e       	mov	r8, r18
     608:	21 e0       	ldi	r18, 0x01	; 1
     60a:	92 2e       	mov	r9, r18
     60c:	aa 24       	eor	r10, r10
     60e:	bb 24       	eor	r11, r11
     610:	65 01       	movw	r12, r10
     612:	91 e0       	ldi	r25, 0x01	; 1
     614:	e9 2e       	mov	r14, r25
     616:	f1 2c       	mov	r15, r1
     618:	01 2d       	mov	r16, r1
     61a:	11 2d       	mov	r17, r1
     61c:	f4 01       	movw	r30, r8
     61e:	21 91       	ld	r18, Z+
     620:	4f 01       	movw	r8, r30
     622:	30 e0       	ldi	r19, 0x00	; 0
     624:	40 e0       	ldi	r20, 0x00	; 0
     626:	50 e0       	ldi	r21, 0x00	; 0
     628:	c8 01       	movw	r24, r16
     62a:	b7 01       	movw	r22, r14
     62c:	0e 94 aa 0d 	call	0x1b54	; 0x1b54 <__mulsi3>
     630:	a6 0e       	add	r10, r22
     632:	b7 1e       	adc	r11, r23
     634:	c8 1e       	adc	r12, r24
     636:	d9 1e       	adc	r13, r25
     638:	ee 0c       	add	r14, r14
     63a:	ff 1c       	adc	r15, r15
     63c:	00 1f       	adc	r16, r16
     63e:	11 1f       	adc	r17, r17
     640:	fc e4       	ldi	r31, 0x4C	; 76
     642:	8f 16       	cp	r8, r31
     644:	f1 e0       	ldi	r31, 0x01	; 1
     646:	9f 06       	cpc	r9, r31
     648:	49 f7       	brne	.-46     	; 0x61c <__vector_4+0x240>
     64a:	c6 01       	movw	r24, r12
     64c:	b5 01       	movw	r22, r10
     64e:	0e 94 ce 00 	call	0x19c	; 0x19c <SendSpi>
     652:	8f ed       	ldi	r24, 0xDF	; 223
     654:	51 c0       	rjmp	.+162    	; 0x6f8 <__vector_4+0x31c>
     656:	1c e4       	ldi	r17, 0x4C	; 76
     658:	81 2e       	mov	r8, r17
     65a:	11 e0       	ldi	r17, 0x01	; 1
     65c:	91 2e       	mov	r9, r17
     65e:	aa 24       	eor	r10, r10
     660:	bb 24       	eor	r11, r11
     662:	65 01       	movw	r12, r10
     664:	b1 e0       	ldi	r27, 0x01	; 1
     666:	eb 2e       	mov	r14, r27
     668:	f1 2c       	mov	r15, r1
     66a:	01 2d       	mov	r16, r1
     66c:	11 2d       	mov	r17, r1
     66e:	d4 01       	movw	r26, r8
     670:	2d 91       	ld	r18, X+
     672:	4d 01       	movw	r8, r26
     674:	30 e0       	ldi	r19, 0x00	; 0
     676:	40 e0       	ldi	r20, 0x00	; 0
     678:	50 e0       	ldi	r21, 0x00	; 0
     67a:	c8 01       	movw	r24, r16
     67c:	b7 01       	movw	r22, r14
     67e:	0e 94 aa 0d 	call	0x1b54	; 0x1b54 <__mulsi3>
     682:	a6 0e       	add	r10, r22
     684:	b7 1e       	adc	r11, r23
     686:	c8 1e       	adc	r12, r24
     688:	d9 1e       	adc	r13, r25
     68a:	ee 0c       	add	r14, r14
     68c:	ff 1c       	adc	r15, r15
     68e:	00 1f       	adc	r16, r16
     690:	11 1f       	adc	r17, r17
     692:	bc e6       	ldi	r27, 0x6C	; 108
     694:	8b 16       	cp	r8, r27
     696:	b1 e0       	ldi	r27, 0x01	; 1
     698:	9b 06       	cpc	r9, r27
     69a:	49 f7       	brne	.-46     	; 0x66e <__vector_4+0x292>
     69c:	c6 01       	movw	r24, r12
     69e:	b5 01       	movw	r22, r10
     6a0:	0e 94 ce 00 	call	0x19c	; 0x19c <SendSpi>
     6a4:	8f eb       	ldi	r24, 0xBF	; 191
     6a6:	28 c0       	rjmp	.+80     	; 0x6f8 <__vector_4+0x31c>
     6a8:	fc e6       	ldi	r31, 0x6C	; 108
     6aa:	8f 2e       	mov	r8, r31
     6ac:	f1 e0       	ldi	r31, 0x01	; 1
     6ae:	9f 2e       	mov	r9, r31
     6b0:	aa 24       	eor	r10, r10
     6b2:	bb 24       	eor	r11, r11
     6b4:	65 01       	movw	r12, r10
     6b6:	e1 e0       	ldi	r30, 0x01	; 1
     6b8:	ee 2e       	mov	r14, r30
     6ba:	f1 2c       	mov	r15, r1
     6bc:	01 2d       	mov	r16, r1
     6be:	11 2d       	mov	r17, r1
     6c0:	f4 01       	movw	r30, r8
     6c2:	21 91       	ld	r18, Z+
     6c4:	4f 01       	movw	r8, r30
     6c6:	30 e0       	ldi	r19, 0x00	; 0
     6c8:	40 e0       	ldi	r20, 0x00	; 0
     6ca:	50 e0       	ldi	r21, 0x00	; 0
     6cc:	c8 01       	movw	r24, r16
     6ce:	b7 01       	movw	r22, r14
     6d0:	0e 94 aa 0d 	call	0x1b54	; 0x1b54 <__mulsi3>
     6d4:	a6 0e       	add	r10, r22
     6d6:	b7 1e       	adc	r11, r23
     6d8:	c8 1e       	adc	r12, r24
     6da:	d9 1e       	adc	r13, r25
     6dc:	ee 0c       	add	r14, r14
     6de:	ff 1c       	adc	r15, r15
     6e0:	00 1f       	adc	r16, r16
     6e2:	11 1f       	adc	r17, r17
     6e4:	fc e8       	ldi	r31, 0x8C	; 140
     6e6:	8f 16       	cp	r8, r31
     6e8:	f1 e0       	ldi	r31, 0x01	; 1
     6ea:	9f 06       	cpc	r9, r31
     6ec:	49 f7       	brne	.-46     	; 0x6c0 <__vector_4+0x2e4>
     6ee:	c6 01       	movw	r24, r12
     6f0:	b5 01       	movw	r22, r10
     6f2:	0e 94 ce 00 	call	0x19c	; 0x19c <SendSpi>
     6f6:	8f e7       	ldi	r24, 0x7F	; 127
     6f8:	82 bb       	out	0x12, r24	; 18
     6fa:	0c 94 70 0d 	jmp	0x1ae0	; 0x1ae0 <__stack+0x1281>
     6fe:	93 30       	cpi	r25, 0x03	; 3
     700:	09 f4       	brne	.+2      	; 0x704 <__vector_4+0x328>
     702:	bf c3       	rjmp	.+1918   	; 0xe82 <__stack+0x623>
     704:	94 30       	cpi	r25, 0x04	; 4
     706:	38 f4       	brcc	.+14     	; 0x716 <__vector_4+0x33a>
     708:	91 30       	cpi	r25, 0x01	; 1
     70a:	09 f4       	brne	.+2      	; 0x70e <__vector_4+0x332>
     70c:	49 c1       	rjmp	.+658    	; 0x9a0 <__stack+0x141>
     70e:	92 30       	cpi	r25, 0x02	; 2
     710:	08 f0       	brcs	.+2      	; 0x714 <__vector_4+0x338>
     712:	7f c2       	rjmp	.+1278   	; 0xc12 <__stack+0x3b3>
     714:	10 c0       	rjmp	.+32     	; 0x736 <__vector_4+0x35a>
     716:	95 30       	cpi	r25, 0x05	; 5
     718:	09 f4       	brne	.+2      	; 0x71c <__vector_4+0x340>
     71a:	23 c6       	rjmp	.+3142   	; 0x1362 <__stack+0xb03>
     71c:	95 30       	cpi	r25, 0x05	; 5
     71e:	08 f4       	brcc	.+2      	; 0x722 <__vector_4+0x346>
     720:	e8 c4       	rjmp	.+2512   	; 0x10f2 <__stack+0x893>
     722:	96 30       	cpi	r25, 0x06	; 6
     724:	11 f4       	brne	.+4      	; 0x72a <__vector_4+0x34e>
     726:	0c 94 e9 0a 	jmp	0x15d2	; 0x15d2 <__stack+0xd73>
     72a:	97 30       	cpi	r25, 0x07	; 7
     72c:	11 f0       	breq	.+4      	; 0x732 <__vector_4+0x356>
     72e:	0c 94 70 0d 	jmp	0x1ae0	; 0x1ae0 <__stack+0x1281>
     732:	0c 94 21 0c 	jmp	0x1842	; 0x1842 <__stack+0xfe3>
     736:	8e ef       	ldi	r24, 0xFE	; 254
     738:	82 bb       	out	0x12, r24	; 18
     73a:	80 91 6f 00 	lds	r24, 0x006F
     73e:	90 91 70 00 	lds	r25, 0x0070
     742:	a0 91 71 00 	lds	r26, 0x0071
     746:	b0 91 72 00 	lds	r27, 0x0072
     74a:	fc 01       	movw	r30, r24
     74c:	ec 5a       	subi	r30, 0xAC	; 172
     74e:	ff 4f       	sbci	r31, 0xFF	; 255
     750:	84 91       	lpm	r24, Z+
     752:	28 2f       	mov	r18, r24
     754:	30 e0       	ldi	r19, 0x00	; 0
     756:	40 e0       	ldi	r20, 0x00	; 0
     758:	50 e0       	ldi	r21, 0x00	; 0
     75a:	80 91 61 00 	lds	r24, 0x0061
     75e:	81 95       	neg	r24
     760:	68 2f       	mov	r22, r24
     762:	77 27       	eor	r23, r23
     764:	67 fd       	sbrc	r22, 7
     766:	70 95       	com	r23
     768:	87 fd       	sbrc	r24, 7
     76a:	0a c0       	rjmp	.+20     	; 0x780 <__vector_4+0x3a4>
     76c:	79 01       	movw	r14, r18
     76e:	8a 01       	movw	r16, r20
     770:	04 c0       	rjmp	.+8      	; 0x77a <__vector_4+0x39e>
     772:	ee 0c       	add	r14, r14
     774:	ff 1c       	adc	r15, r15
     776:	00 1f       	adc	r16, r16
     778:	11 1f       	adc	r17, r17
     77a:	6a 95       	dec	r22
     77c:	d2 f7       	brpl	.-12     	; 0x772 <__vector_4+0x396>
     77e:	0d c0       	rjmp	.+26     	; 0x79a <__vector_4+0x3be>
     780:	88 27       	eor	r24, r24
     782:	99 27       	eor	r25, r25
     784:	86 1b       	sub	r24, r22
     786:	97 0b       	sbc	r25, r23
     788:	79 01       	movw	r14, r18
     78a:	8a 01       	movw	r16, r20
     78c:	04 c0       	rjmp	.+8      	; 0x796 <__vector_4+0x3ba>
     78e:	16 95       	lsr	r17
     790:	07 95       	ror	r16
     792:	f7 94       	ror	r15
     794:	e7 94       	ror	r14
     796:	8a 95       	dec	r24
     798:	d2 f7       	brpl	.-12     	; 0x78e <__vector_4+0x3b2>
     79a:	ed 8e       	std	Y+29, r14	; 0x1d
     79c:	fe 8e       	std	Y+30, r15	; 0x1e
     79e:	0f 8f       	std	Y+31, r16	; 0x1f
     7a0:	18 a3       	std	Y+32, r17	; 0x20
     7a2:	80 91 73 00 	lds	r24, 0x0073
     7a6:	90 91 74 00 	lds	r25, 0x0074
     7aa:	a0 91 75 00 	lds	r26, 0x0075
     7ae:	b0 91 76 00 	lds	r27, 0x0076
     7b2:	fc 01       	movw	r30, r24
     7b4:	ec 5a       	subi	r30, 0xAC	; 172
     7b6:	ff 4f       	sbci	r31, 0xFF	; 255
     7b8:	84 91       	lpm	r24, Z+
     7ba:	28 2f       	mov	r18, r24
     7bc:	30 e0       	ldi	r19, 0x00	; 0
     7be:	40 e0       	ldi	r20, 0x00	; 0
     7c0:	50 e0       	ldi	r21, 0x00	; 0
     7c2:	90 91 61 00 	lds	r25, 0x0061
     7c6:	86 e0       	ldi	r24, 0x06	; 6
     7c8:	89 1b       	sub	r24, r25
     7ca:	68 2f       	mov	r22, r24
     7cc:	77 27       	eor	r23, r23
     7ce:	67 fd       	sbrc	r22, 7
     7d0:	70 95       	com	r23
     7d2:	87 fd       	sbrc	r24, 7
     7d4:	08 c0       	rjmp	.+16     	; 0x7e6 <__vector_4+0x40a>
     7d6:	04 c0       	rjmp	.+8      	; 0x7e0 <__vector_4+0x404>
     7d8:	22 0f       	add	r18, r18
     7da:	33 1f       	adc	r19, r19
     7dc:	44 1f       	adc	r20, r20
     7de:	55 1f       	adc	r21, r21
     7e0:	6a 95       	dec	r22
     7e2:	d2 f7       	brpl	.-12     	; 0x7d8 <__vector_4+0x3fc>
     7e4:	0b c0       	rjmp	.+22     	; 0x7fc <__vector_4+0x420>
     7e6:	88 27       	eor	r24, r24
     7e8:	99 27       	eor	r25, r25
     7ea:	86 1b       	sub	r24, r22
     7ec:	97 0b       	sbc	r25, r23
     7ee:	04 c0       	rjmp	.+8      	; 0x7f8 <__vector_4+0x41c>
     7f0:	56 95       	lsr	r21
     7f2:	47 95       	ror	r20
     7f4:	37 95       	ror	r19
     7f6:	27 95       	ror	r18
     7f8:	8a 95       	dec	r24
     7fa:	d2 f7       	brpl	.-12     	; 0x7f0 <__vector_4+0x414>
     7fc:	80 91 7b 00 	lds	r24, 0x007B
     800:	90 91 7c 00 	lds	r25, 0x007C
     804:	a0 91 7d 00 	lds	r26, 0x007D
     808:	b0 91 7e 00 	lds	r27, 0x007E
     80c:	fc 01       	movw	r30, r24
     80e:	ec 5a       	subi	r30, 0xAC	; 172
     810:	ff 4f       	sbci	r31, 0xFF	; 255
     812:	84 91       	lpm	r24, Z+
     814:	e8 2e       	mov	r14, r24
     816:	ff 24       	eor	r15, r15
     818:	00 e0       	ldi	r16, 0x00	; 0
     81a:	10 e0       	ldi	r17, 0x00	; 0
     81c:	90 91 61 00 	lds	r25, 0x0061
     820:	8c e0       	ldi	r24, 0x0C	; 12
     822:	89 1b       	sub	r24, r25
     824:	68 2f       	mov	r22, r24
     826:	77 27       	eor	r23, r23
     828:	67 fd       	sbrc	r22, 7
     82a:	70 95       	com	r23
     82c:	87 fd       	sbrc	r24, 7
     82e:	0a c0       	rjmp	.+20     	; 0x844 <__vector_4+0x468>
     830:	17 01       	movw	r2, r14
     832:	28 01       	movw	r4, r16
     834:	04 c0       	rjmp	.+8      	; 0x83e <__vector_4+0x462>
     836:	22 0c       	add	r2, r2
     838:	33 1c       	adc	r3, r3
     83a:	44 1c       	adc	r4, r4
     83c:	55 1c       	adc	r5, r5
     83e:	6a 95       	dec	r22
     840:	d2 f7       	brpl	.-12     	; 0x836 <__vector_4+0x45a>
     842:	0d c0       	rjmp	.+26     	; 0x85e <__vector_4+0x482>
     844:	88 27       	eor	r24, r24
     846:	99 27       	eor	r25, r25
     848:	86 1b       	sub	r24, r22
     84a:	97 0b       	sbc	r25, r23
     84c:	17 01       	movw	r2, r14
     84e:	28 01       	movw	r4, r16
     850:	04 c0       	rjmp	.+8      	; 0x85a <__vector_4+0x47e>
     852:	56 94       	lsr	r5
     854:	47 94       	ror	r4
     856:	37 94       	ror	r3
     858:	27 94       	ror	r2
     85a:	8a 95       	dec	r24
     85c:	d2 f7       	brpl	.-12     	; 0x852 <__vector_4+0x476>
     85e:	80 91 7f 00 	lds	r24, 0x007F
     862:	90 91 80 00 	lds	r25, 0x0080
     866:	a0 91 81 00 	lds	r26, 0x0081
     86a:	b0 91 82 00 	lds	r27, 0x0082
     86e:	fc 01       	movw	r30, r24
     870:	ec 5a       	subi	r30, 0xAC	; 172
     872:	ff 4f       	sbci	r31, 0xFF	; 255
     874:	84 91       	lpm	r24, Z+
     876:	e8 2e       	mov	r14, r24
     878:	ff 24       	eor	r15, r15
     87a:	00 e0       	ldi	r16, 0x00	; 0
     87c:	10 e0       	ldi	r17, 0x00	; 0
     87e:	90 91 61 00 	lds	r25, 0x0061
     882:	82 e1       	ldi	r24, 0x12	; 18
     884:	89 1b       	sub	r24, r25
     886:	68 2f       	mov	r22, r24
     888:	77 27       	eor	r23, r23
     88a:	67 fd       	sbrc	r22, 7
     88c:	70 95       	com	r23
     88e:	87 fd       	sbrc	r24, 7
     890:	0a c0       	rjmp	.+20     	; 0x8a6 <__stack+0x47>
     892:	37 01       	movw	r6, r14
     894:	48 01       	movw	r8, r16
     896:	04 c0       	rjmp	.+8      	; 0x8a0 <__stack+0x41>
     898:	66 0c       	add	r6, r6
     89a:	77 1c       	adc	r7, r7
     89c:	88 1c       	adc	r8, r8
     89e:	99 1c       	adc	r9, r9
     8a0:	6a 95       	dec	r22
     8a2:	d2 f7       	brpl	.-12     	; 0x898 <__stack+0x39>
     8a4:	0d c0       	rjmp	.+26     	; 0x8c0 <__stack+0x61>
     8a6:	88 27       	eor	r24, r24
     8a8:	99 27       	eor	r25, r25
     8aa:	86 1b       	sub	r24, r22
     8ac:	97 0b       	sbc	r25, r23
     8ae:	37 01       	movw	r6, r14
     8b0:	48 01       	movw	r8, r16
     8b2:	04 c0       	rjmp	.+8      	; 0x8bc <__stack+0x5d>
     8b4:	96 94       	lsr	r9
     8b6:	87 94       	ror	r8
     8b8:	77 94       	ror	r7
     8ba:	67 94       	ror	r6
     8bc:	8a 95       	dec	r24
     8be:	d2 f7       	brpl	.-12     	; 0x8b4 <__stack+0x55>
     8c0:	80 91 77 00 	lds	r24, 0x0077
     8c4:	90 91 78 00 	lds	r25, 0x0078
     8c8:	a0 91 79 00 	lds	r26, 0x0079
     8cc:	b0 91 7a 00 	lds	r27, 0x007A
     8d0:	fc 01       	movw	r30, r24
     8d2:	ec 5a       	subi	r30, 0xAC	; 172
     8d4:	ff 4f       	sbci	r31, 0xFF	; 255
     8d6:	84 91       	lpm	r24, Z+
     8d8:	e8 2e       	mov	r14, r24
     8da:	ff 24       	eor	r15, r15
     8dc:	00 e0       	ldi	r16, 0x00	; 0
     8de:	10 e0       	ldi	r17, 0x00	; 0
     8e0:	90 91 61 00 	lds	r25, 0x0061
     8e4:	88 e1       	ldi	r24, 0x18	; 24
     8e6:	89 1b       	sub	r24, r25
     8e8:	68 2f       	mov	r22, r24
     8ea:	77 27       	eor	r23, r23
     8ec:	67 fd       	sbrc	r22, 7
     8ee:	70 95       	com	r23
     8f0:	87 fd       	sbrc	r24, 7
     8f2:	0a c0       	rjmp	.+20     	; 0x908 <__stack+0xa9>
     8f4:	57 01       	movw	r10, r14
     8f6:	68 01       	movw	r12, r16
     8f8:	04 c0       	rjmp	.+8      	; 0x902 <__stack+0xa3>
     8fa:	aa 0c       	add	r10, r10
     8fc:	bb 1c       	adc	r11, r11
     8fe:	cc 1c       	adc	r12, r12
     900:	dd 1c       	adc	r13, r13
     902:	6a 95       	dec	r22
     904:	d2 f7       	brpl	.-12     	; 0x8fa <__stack+0x9b>
     906:	0d c0       	rjmp	.+26     	; 0x922 <__stack+0xc3>
     908:	88 27       	eor	r24, r24
     90a:	99 27       	eor	r25, r25
     90c:	86 1b       	sub	r24, r22
     90e:	97 0b       	sbc	r25, r23
     910:	57 01       	movw	r10, r14
     912:	68 01       	movw	r12, r16
     914:	04 c0       	rjmp	.+8      	; 0x91e <__stack+0xbf>
     916:	d6 94       	lsr	r13
     918:	c7 94       	ror	r12
     91a:	b7 94       	ror	r11
     91c:	a7 94       	ror	r10
     91e:	8a 95       	dec	r24
     920:	d2 f7       	brpl	.-12     	; 0x916 <__stack+0xb7>
     922:	80 91 67 00 	lds	r24, 0x0067
     926:	90 91 68 00 	lds	r25, 0x0068
     92a:	a0 91 69 00 	lds	r26, 0x0069
     92e:	b0 91 6a 00 	lds	r27, 0x006A
     932:	fc 01       	movw	r30, r24
     934:	ec 5a       	subi	r30, 0xAC	; 172
     936:	ff 4f       	sbci	r31, 0xFF	; 255
     938:	84 91       	lpm	r24, Z+
     93a:	e8 2e       	mov	r14, r24
     93c:	ff 24       	eor	r15, r15
     93e:	00 e0       	ldi	r16, 0x00	; 0
     940:	10 e0       	ldi	r17, 0x00	; 0
     942:	e9 a2       	std	Y+33, r14	; 0x21
     944:	fa a2       	std	Y+34, r15	; 0x22
     946:	0b a3       	std	Y+35, r16	; 0x23
     948:	1c a3       	std	Y+36, r17	; 0x24
     94a:	90 91 61 00 	lds	r25, 0x0061
     94e:	8e e1       	ldi	r24, 0x1E	; 30
     950:	89 1b       	sub	r24, r25
     952:	68 2f       	mov	r22, r24
     954:	77 27       	eor	r23, r23
     956:	67 fd       	sbrc	r22, 7
     958:	70 95       	com	r23
     95a:	87 fd       	sbrc	r24, 7
     95c:	0a c0       	rjmp	.+20     	; 0x972 <__stack+0x113>
     95e:	d8 01       	movw	r26, r16
     960:	c7 01       	movw	r24, r14
     962:	04 c0       	rjmp	.+8      	; 0x96c <__stack+0x10d>
     964:	88 0f       	add	r24, r24
     966:	99 1f       	adc	r25, r25
     968:	aa 1f       	adc	r26, r26
     96a:	bb 1f       	adc	r27, r27
     96c:	6a 95       	dec	r22
     96e:	d2 f7       	brpl	.-12     	; 0x964 <__stack+0x105>
     970:	11 c0       	rjmp	.+34     	; 0x994 <__stack+0x135>
     972:	88 27       	eor	r24, r24
     974:	99 27       	eor	r25, r25
     976:	86 1b       	sub	r24, r22
     978:	97 0b       	sbc	r25, r23
     97a:	e9 a0       	ldd	r14, Y+33	; 0x21
     97c:	fa a0       	ldd	r15, Y+34	; 0x22
     97e:	0b a1       	ldd	r16, Y+35	; 0x23
     980:	1c a1       	ldd	r17, Y+36	; 0x24
     982:	04 c0       	rjmp	.+8      	; 0x98c <__stack+0x12d>
     984:	16 95       	lsr	r17
     986:	07 95       	ror	r16
     988:	f7 94       	ror	r15
     98a:	e7 94       	ror	r14
     98c:	8a 95       	dec	r24
     98e:	d2 f7       	brpl	.-12     	; 0x984 <__stack+0x125>
     990:	d8 01       	movw	r26, r16
     992:	c7 01       	movw	r24, r14
     994:	ed 8c       	ldd	r14, Y+29	; 0x1d
     996:	fe 8c       	ldd	r15, Y+30	; 0x1e
     998:	0f 8d       	ldd	r16, Y+31	; 0x1f
     99a:	18 a1       	ldd	r17, Y+32	; 0x20
     99c:	0c 94 58 0d 	jmp	0x1ab0	; 0x1ab0 <__stack+0x1251>
     9a0:	8d ef       	ldi	r24, 0xFD	; 253
     9a2:	82 bb       	out	0x12, r24	; 18
     9a4:	80 91 6f 00 	lds	r24, 0x006F
     9a8:	90 91 70 00 	lds	r25, 0x0070
     9ac:	a0 91 71 00 	lds	r26, 0x0071
     9b0:	b0 91 72 00 	lds	r27, 0x0072
     9b4:	fc 01       	movw	r30, r24
     9b6:	e8 58       	subi	r30, 0x88	; 136
     9b8:	ff 4f       	sbci	r31, 0xFF	; 255
     9ba:	84 91       	lpm	r24, Z+
     9bc:	28 2f       	mov	r18, r24
     9be:	30 e0       	ldi	r19, 0x00	; 0
     9c0:	40 e0       	ldi	r20, 0x00	; 0
     9c2:	50 e0       	ldi	r21, 0x00	; 0
     9c4:	80 91 61 00 	lds	r24, 0x0061
     9c8:	81 95       	neg	r24
     9ca:	68 2f       	mov	r22, r24
     9cc:	77 27       	eor	r23, r23
     9ce:	67 fd       	sbrc	r22, 7
     9d0:	70 95       	com	r23
     9d2:	87 fd       	sbrc	r24, 7
     9d4:	0e c0       	rjmp	.+28     	; 0x9f2 <__stack+0x193>
     9d6:	da 01       	movw	r26, r20
     9d8:	c9 01       	movw	r24, r18
     9da:	04 c0       	rjmp	.+8      	; 0x9e4 <__stack+0x185>
     9dc:	88 0f       	add	r24, r24
     9de:	99 1f       	adc	r25, r25
     9e0:	aa 1f       	adc	r26, r26
     9e2:	bb 1f       	adc	r27, r27
     9e4:	6a 95       	dec	r22
     9e6:	d2 f7       	brpl	.-12     	; 0x9dc <__stack+0x17d>
     9e8:	89 8f       	std	Y+25, r24	; 0x19
     9ea:	9a 8f       	std	Y+26, r25	; 0x1a
     9ec:	ab 8f       	std	Y+27, r26	; 0x1b
     9ee:	bc 8f       	std	Y+28, r27	; 0x1c
     9f0:	11 c0       	rjmp	.+34     	; 0xa14 <__stack+0x1b5>
     9f2:	88 27       	eor	r24, r24
     9f4:	99 27       	eor	r25, r25
     9f6:	86 1b       	sub	r24, r22
     9f8:	97 0b       	sbc	r25, r23
     9fa:	79 01       	movw	r14, r18
     9fc:	8a 01       	movw	r16, r20
     9fe:	04 c0       	rjmp	.+8      	; 0xa08 <__stack+0x1a9>
     a00:	16 95       	lsr	r17
     a02:	07 95       	ror	r16
     a04:	f7 94       	ror	r15
     a06:	e7 94       	ror	r14
     a08:	8a 95       	dec	r24
     a0a:	d2 f7       	brpl	.-12     	; 0xa00 <__stack+0x1a1>
     a0c:	e9 8e       	std	Y+25, r14	; 0x19
     a0e:	fa 8e       	std	Y+26, r15	; 0x1a
     a10:	0b 8f       	std	Y+27, r16	; 0x1b
     a12:	1c 8f       	std	Y+28, r17	; 0x1c
     a14:	80 91 73 00 	lds	r24, 0x0073
     a18:	90 91 74 00 	lds	r25, 0x0074
     a1c:	a0 91 75 00 	lds	r26, 0x0075
     a20:	b0 91 76 00 	lds	r27, 0x0076
     a24:	fc 01       	movw	r30, r24
     a26:	e8 58       	subi	r30, 0x88	; 136
     a28:	ff 4f       	sbci	r31, 0xFF	; 255
     a2a:	84 91       	lpm	r24, Z+
     a2c:	28 2f       	mov	r18, r24
     a2e:	30 e0       	ldi	r19, 0x00	; 0
     a30:	40 e0       	ldi	r20, 0x00	; 0
     a32:	50 e0       	ldi	r21, 0x00	; 0
     a34:	90 91 61 00 	lds	r25, 0x0061
     a38:	86 e0       	ldi	r24, 0x06	; 6
     a3a:	89 1b       	sub	r24, r25
     a3c:	68 2f       	mov	r22, r24
     a3e:	77 27       	eor	r23, r23
     a40:	67 fd       	sbrc	r22, 7
     a42:	70 95       	com	r23
     a44:	87 fd       	sbrc	r24, 7
     a46:	08 c0       	rjmp	.+16     	; 0xa58 <__stack+0x1f9>
     a48:	04 c0       	rjmp	.+8      	; 0xa52 <__stack+0x1f3>
     a4a:	22 0f       	add	r18, r18
     a4c:	33 1f       	adc	r19, r19
     a4e:	44 1f       	adc	r20, r20
     a50:	55 1f       	adc	r21, r21
     a52:	6a 95       	dec	r22
     a54:	d2 f7       	brpl	.-12     	; 0xa4a <__stack+0x1eb>
     a56:	0b c0       	rjmp	.+22     	; 0xa6e <__stack+0x20f>
     a58:	88 27       	eor	r24, r24
     a5a:	99 27       	eor	r25, r25
     a5c:	86 1b       	sub	r24, r22
     a5e:	97 0b       	sbc	r25, r23
     a60:	04 c0       	rjmp	.+8      	; 0xa6a <__stack+0x20b>
     a62:	56 95       	lsr	r21
     a64:	47 95       	ror	r20
     a66:	37 95       	ror	r19
     a68:	27 95       	ror	r18
     a6a:	8a 95       	dec	r24
     a6c:	d2 f7       	brpl	.-12     	; 0xa62 <__stack+0x203>
     a6e:	80 91 7b 00 	lds	r24, 0x007B
     a72:	90 91 7c 00 	lds	r25, 0x007C
     a76:	a0 91 7d 00 	lds	r26, 0x007D
     a7a:	b0 91 7e 00 	lds	r27, 0x007E
     a7e:	fc 01       	movw	r30, r24
     a80:	e8 58       	subi	r30, 0x88	; 136
     a82:	ff 4f       	sbci	r31, 0xFF	; 255
     a84:	84 91       	lpm	r24, Z+
     a86:	e8 2e       	mov	r14, r24
     a88:	ff 24       	eor	r15, r15
     a8a:	00 e0       	ldi	r16, 0x00	; 0
     a8c:	10 e0       	ldi	r17, 0x00	; 0
     a8e:	90 91 61 00 	lds	r25, 0x0061
     a92:	8c e0       	ldi	r24, 0x0C	; 12
     a94:	89 1b       	sub	r24, r25
     a96:	68 2f       	mov	r22, r24
     a98:	77 27       	eor	r23, r23
     a9a:	67 fd       	sbrc	r22, 7
     a9c:	70 95       	com	r23
     a9e:	87 fd       	sbrc	r24, 7
     aa0:	0a c0       	rjmp	.+20     	; 0xab6 <__stack+0x257>
     aa2:	17 01       	movw	r2, r14
     aa4:	28 01       	movw	r4, r16
     aa6:	04 c0       	rjmp	.+8      	; 0xab0 <__stack+0x251>
     aa8:	22 0c       	add	r2, r2
     aaa:	33 1c       	adc	r3, r3
     aac:	44 1c       	adc	r4, r4
     aae:	55 1c       	adc	r5, r5
     ab0:	6a 95       	dec	r22
     ab2:	d2 f7       	brpl	.-12     	; 0xaa8 <__stack+0x249>
     ab4:	0d c0       	rjmp	.+26     	; 0xad0 <__stack+0x271>
     ab6:	88 27       	eor	r24, r24
     ab8:	99 27       	eor	r25, r25
     aba:	86 1b       	sub	r24, r22
     abc:	97 0b       	sbc	r25, r23
     abe:	17 01       	movw	r2, r14
     ac0:	28 01       	movw	r4, r16
     ac2:	04 c0       	rjmp	.+8      	; 0xacc <__stack+0x26d>
     ac4:	56 94       	lsr	r5
     ac6:	47 94       	ror	r4
     ac8:	37 94       	ror	r3
     aca:	27 94       	ror	r2
     acc:	8a 95       	dec	r24
     ace:	d2 f7       	brpl	.-12     	; 0xac4 <__stack+0x265>
     ad0:	80 91 7f 00 	lds	r24, 0x007F
     ad4:	90 91 80 00 	lds	r25, 0x0080
     ad8:	a0 91 81 00 	lds	r26, 0x0081
     adc:	b0 91 82 00 	lds	r27, 0x0082
     ae0:	fc 01       	movw	r30, r24
     ae2:	e8 58       	subi	r30, 0x88	; 136
     ae4:	ff 4f       	sbci	r31, 0xFF	; 255
     ae6:	84 91       	lpm	r24, Z+
     ae8:	e8 2e       	mov	r14, r24
     aea:	ff 24       	eor	r15, r15
     aec:	00 e0       	ldi	r16, 0x00	; 0
     aee:	10 e0       	ldi	r17, 0x00	; 0
     af0:	90 91 61 00 	lds	r25, 0x0061
     af4:	82 e1       	ldi	r24, 0x12	; 18
     af6:	89 1b       	sub	r24, r25
     af8:	68 2f       	mov	r22, r24
     afa:	77 27       	eor	r23, r23
     afc:	67 fd       	sbrc	r22, 7
     afe:	70 95       	com	r23
     b00:	87 fd       	sbrc	r24, 7
     b02:	0a c0       	rjmp	.+20     	; 0xb18 <__stack+0x2b9>
     b04:	37 01       	movw	r6, r14
     b06:	48 01       	movw	r8, r16
     b08:	04 c0       	rjmp	.+8      	; 0xb12 <__stack+0x2b3>
     b0a:	66 0c       	add	r6, r6
     b0c:	77 1c       	adc	r7, r7
     b0e:	88 1c       	adc	r8, r8
     b10:	99 1c       	adc	r9, r9
     b12:	6a 95       	dec	r22
     b14:	d2 f7       	brpl	.-12     	; 0xb0a <__stack+0x2ab>
     b16:	0d c0       	rjmp	.+26     	; 0xb32 <__stack+0x2d3>
     b18:	88 27       	eor	r24, r24
     b1a:	99 27       	eor	r25, r25
     b1c:	86 1b       	sub	r24, r22
     b1e:	97 0b       	sbc	r25, r23
     b20:	37 01       	movw	r6, r14
     b22:	48 01       	movw	r8, r16
     b24:	04 c0       	rjmp	.+8      	; 0xb2e <__stack+0x2cf>
     b26:	96 94       	lsr	r9
     b28:	87 94       	ror	r8
     b2a:	77 94       	ror	r7
     b2c:	67 94       	ror	r6
     b2e:	8a 95       	dec	r24
     b30:	d2 f7       	brpl	.-12     	; 0xb26 <__stack+0x2c7>
     b32:	80 91 77 00 	lds	r24, 0x0077
     b36:	90 91 78 00 	lds	r25, 0x0078
     b3a:	a0 91 79 00 	lds	r26, 0x0079
     b3e:	b0 91 7a 00 	lds	r27, 0x007A
     b42:	fc 01       	movw	r30, r24
     b44:	e8 58       	subi	r30, 0x88	; 136
     b46:	ff 4f       	sbci	r31, 0xFF	; 255
     b48:	84 91       	lpm	r24, Z+
     b4a:	e8 2e       	mov	r14, r24
     b4c:	ff 24       	eor	r15, r15
     b4e:	00 e0       	ldi	r16, 0x00	; 0
     b50:	10 e0       	ldi	r17, 0x00	; 0
     b52:	90 91 61 00 	lds	r25, 0x0061
     b56:	88 e1       	ldi	r24, 0x18	; 24
     b58:	89 1b       	sub	r24, r25
     b5a:	68 2f       	mov	r22, r24
     b5c:	77 27       	eor	r23, r23
     b5e:	67 fd       	sbrc	r22, 7
     b60:	70 95       	com	r23
     b62:	87 fd       	sbrc	r24, 7
     b64:	0a c0       	rjmp	.+20     	; 0xb7a <__stack+0x31b>
     b66:	57 01       	movw	r10, r14
     b68:	68 01       	movw	r12, r16
     b6a:	04 c0       	rjmp	.+8      	; 0xb74 <__stack+0x315>
     b6c:	aa 0c       	add	r10, r10
     b6e:	bb 1c       	adc	r11, r11
     b70:	cc 1c       	adc	r12, r12
     b72:	dd 1c       	adc	r13, r13
     b74:	6a 95       	dec	r22
     b76:	d2 f7       	brpl	.-12     	; 0xb6c <__stack+0x30d>
     b78:	0d c0       	rjmp	.+26     	; 0xb94 <__stack+0x335>
     b7a:	88 27       	eor	r24, r24
     b7c:	99 27       	eor	r25, r25
     b7e:	86 1b       	sub	r24, r22
     b80:	97 0b       	sbc	r25, r23
     b82:	57 01       	movw	r10, r14
     b84:	68 01       	movw	r12, r16
     b86:	04 c0       	rjmp	.+8      	; 0xb90 <__stack+0x331>
     b88:	d6 94       	lsr	r13
     b8a:	c7 94       	ror	r12
     b8c:	b7 94       	ror	r11
     b8e:	a7 94       	ror	r10
     b90:	8a 95       	dec	r24
     b92:	d2 f7       	brpl	.-12     	; 0xb88 <__stack+0x329>
     b94:	80 91 67 00 	lds	r24, 0x0067
     b98:	90 91 68 00 	lds	r25, 0x0068
     b9c:	a0 91 69 00 	lds	r26, 0x0069
     ba0:	b0 91 6a 00 	lds	r27, 0x006A
     ba4:	fc 01       	movw	r30, r24
     ba6:	e8 58       	subi	r30, 0x88	; 136
     ba8:	ff 4f       	sbci	r31, 0xFF	; 255
     baa:	84 91       	lpm	r24, Z+
     bac:	e8 2e       	mov	r14, r24
     bae:	ff 24       	eor	r15, r15
     bb0:	00 e0       	ldi	r16, 0x00	; 0
     bb2:	10 e0       	ldi	r17, 0x00	; 0
     bb4:	e9 a2       	std	Y+33, r14	; 0x21
     bb6:	fa a2       	std	Y+34, r15	; 0x22
     bb8:	0b a3       	std	Y+35, r16	; 0x23
     bba:	1c a3       	std	Y+36, r17	; 0x24
     bbc:	90 91 61 00 	lds	r25, 0x0061
     bc0:	8e e1       	ldi	r24, 0x1E	; 30
     bc2:	89 1b       	sub	r24, r25
     bc4:	68 2f       	mov	r22, r24
     bc6:	77 27       	eor	r23, r23
     bc8:	67 fd       	sbrc	r22, 7
     bca:	70 95       	com	r23
     bcc:	87 fd       	sbrc	r24, 7
     bce:	0a c0       	rjmp	.+20     	; 0xbe4 <__stack+0x385>
     bd0:	d8 01       	movw	r26, r16
     bd2:	c7 01       	movw	r24, r14
     bd4:	04 c0       	rjmp	.+8      	; 0xbde <__stack+0x37f>
     bd6:	88 0f       	add	r24, r24
     bd8:	99 1f       	adc	r25, r25
     bda:	aa 1f       	adc	r26, r26
     bdc:	bb 1f       	adc	r27, r27
     bde:	6a 95       	dec	r22
     be0:	d2 f7       	brpl	.-12     	; 0xbd6 <__stack+0x377>
     be2:	11 c0       	rjmp	.+34     	; 0xc06 <__stack+0x3a7>
     be4:	88 27       	eor	r24, r24
     be6:	99 27       	eor	r25, r25
     be8:	86 1b       	sub	r24, r22
     bea:	97 0b       	sbc	r25, r23
     bec:	e9 a0       	ldd	r14, Y+33	; 0x21
     bee:	fa a0       	ldd	r15, Y+34	; 0x22
     bf0:	0b a1       	ldd	r16, Y+35	; 0x23
     bf2:	1c a1       	ldd	r17, Y+36	; 0x24
     bf4:	04 c0       	rjmp	.+8      	; 0xbfe <__stack+0x39f>
     bf6:	16 95       	lsr	r17
     bf8:	07 95       	ror	r16
     bfa:	f7 94       	ror	r15
     bfc:	e7 94       	ror	r14
     bfe:	8a 95       	dec	r24
     c00:	d2 f7       	brpl	.-12     	; 0xbf6 <__stack+0x397>
     c02:	d8 01       	movw	r26, r16
     c04:	c7 01       	movw	r24, r14
     c06:	e9 8c       	ldd	r14, Y+25	; 0x19
     c08:	fa 8c       	ldd	r15, Y+26	; 0x1a
     c0a:	0b 8d       	ldd	r16, Y+27	; 0x1b
     c0c:	1c 8d       	ldd	r17, Y+28	; 0x1c
     c0e:	0c 94 58 0d 	jmp	0x1ab0	; 0x1ab0 <__stack+0x1251>
     c12:	8b ef       	ldi	r24, 0xFB	; 251
     c14:	82 bb       	out	0x12, r24	; 18
     c16:	80 91 6f 00 	lds	r24, 0x006F
     c1a:	90 91 70 00 	lds	r25, 0x0070
     c1e:	a0 91 71 00 	lds	r26, 0x0071
     c22:	b0 91 72 00 	lds	r27, 0x0072
     c26:	fc 01       	movw	r30, r24
     c28:	e4 56       	subi	r30, 0x64	; 100
     c2a:	ff 4f       	sbci	r31, 0xFF	; 255
     c2c:	84 91       	lpm	r24, Z+
     c2e:	28 2f       	mov	r18, r24
     c30:	30 e0       	ldi	r19, 0x00	; 0
     c32:	40 e0       	ldi	r20, 0x00	; 0
     c34:	50 e0       	ldi	r21, 0x00	; 0
     c36:	80 91 61 00 	lds	r24, 0x0061
     c3a:	81 95       	neg	r24
     c3c:	68 2f       	mov	r22, r24
     c3e:	77 27       	eor	r23, r23
     c40:	67 fd       	sbrc	r22, 7
     c42:	70 95       	com	r23
     c44:	87 fd       	sbrc	r24, 7
     c46:	0e c0       	rjmp	.+28     	; 0xc64 <__stack+0x405>
     c48:	da 01       	movw	r26, r20
     c4a:	c9 01       	movw	r24, r18
     c4c:	04 c0       	rjmp	.+8      	; 0xc56 <__stack+0x3f7>
     c4e:	88 0f       	add	r24, r24
     c50:	99 1f       	adc	r25, r25
     c52:	aa 1f       	adc	r26, r26
     c54:	bb 1f       	adc	r27, r27
     c56:	6a 95       	dec	r22
     c58:	d2 f7       	brpl	.-12     	; 0xc4e <__stack+0x3ef>
     c5a:	8d 8b       	std	Y+21, r24	; 0x15
     c5c:	9e 8b       	std	Y+22, r25	; 0x16
     c5e:	af 8b       	std	Y+23, r26	; 0x17
     c60:	b8 8f       	std	Y+24, r27	; 0x18
     c62:	11 c0       	rjmp	.+34     	; 0xc86 <__stack+0x427>
     c64:	88 27       	eor	r24, r24
     c66:	99 27       	eor	r25, r25
     c68:	86 1b       	sub	r24, r22
     c6a:	97 0b       	sbc	r25, r23
     c6c:	79 01       	movw	r14, r18
     c6e:	8a 01       	movw	r16, r20
     c70:	04 c0       	rjmp	.+8      	; 0xc7a <__stack+0x41b>
     c72:	16 95       	lsr	r17
     c74:	07 95       	ror	r16
     c76:	f7 94       	ror	r15
     c78:	e7 94       	ror	r14
     c7a:	8a 95       	dec	r24
     c7c:	d2 f7       	brpl	.-12     	; 0xc72 <__stack+0x413>
     c7e:	ed 8a       	std	Y+21, r14	; 0x15
     c80:	fe 8a       	std	Y+22, r15	; 0x16
     c82:	0f 8b       	std	Y+23, r16	; 0x17
     c84:	18 8f       	std	Y+24, r17	; 0x18
     c86:	80 91 73 00 	lds	r24, 0x0073
     c8a:	90 91 74 00 	lds	r25, 0x0074
     c8e:	a0 91 75 00 	lds	r26, 0x0075
     c92:	b0 91 76 00 	lds	r27, 0x0076
     c96:	fc 01       	movw	r30, r24
     c98:	e4 56       	subi	r30, 0x64	; 100
     c9a:	ff 4f       	sbci	r31, 0xFF	; 255
     c9c:	84 91       	lpm	r24, Z+
     c9e:	28 2f       	mov	r18, r24
     ca0:	30 e0       	ldi	r19, 0x00	; 0
     ca2:	40 e0       	ldi	r20, 0x00	; 0
     ca4:	50 e0       	ldi	r21, 0x00	; 0
     ca6:	90 91 61 00 	lds	r25, 0x0061
     caa:	86 e0       	ldi	r24, 0x06	; 6
     cac:	89 1b       	sub	r24, r25
     cae:	68 2f       	mov	r22, r24
     cb0:	77 27       	eor	r23, r23
     cb2:	67 fd       	sbrc	r22, 7
     cb4:	70 95       	com	r23
     cb6:	87 fd       	sbrc	r24, 7
     cb8:	08 c0       	rjmp	.+16     	; 0xcca <__stack+0x46b>
     cba:	04 c0       	rjmp	.+8      	; 0xcc4 <__stack+0x465>
     cbc:	22 0f       	add	r18, r18
     cbe:	33 1f       	adc	r19, r19
     cc0:	44 1f       	adc	r20, r20
     cc2:	55 1f       	adc	r21, r21
     cc4:	6a 95       	dec	r22
     cc6:	d2 f7       	brpl	.-12     	; 0xcbc <__stack+0x45d>
     cc8:	0b c0       	rjmp	.+22     	; 0xce0 <__stack+0x481>
     cca:	88 27       	eor	r24, r24
     ccc:	99 27       	eor	r25, r25
     cce:	86 1b       	sub	r24, r22
     cd0:	97 0b       	sbc	r25, r23
     cd2:	04 c0       	rjmp	.+8      	; 0xcdc <__stack+0x47d>
     cd4:	56 95       	lsr	r21
     cd6:	47 95       	ror	r20
     cd8:	37 95       	ror	r19
     cda:	27 95       	ror	r18
     cdc:	8a 95       	dec	r24
     cde:	d2 f7       	brpl	.-12     	; 0xcd4 <__stack+0x475>
     ce0:	80 91 7b 00 	lds	r24, 0x007B
     ce4:	90 91 7c 00 	lds	r25, 0x007C
     ce8:	a0 91 7d 00 	lds	r26, 0x007D
     cec:	b0 91 7e 00 	lds	r27, 0x007E
     cf0:	fc 01       	movw	r30, r24
     cf2:	e4 56       	subi	r30, 0x64	; 100
     cf4:	ff 4f       	sbci	r31, 0xFF	; 255
     cf6:	84 91       	lpm	r24, Z+
     cf8:	e8 2e       	mov	r14, r24
     cfa:	ff 24       	eor	r15, r15
     cfc:	00 e0       	ldi	r16, 0x00	; 0
     cfe:	10 e0       	ldi	r17, 0x00	; 0
     d00:	90 91 61 00 	lds	r25, 0x0061
     d04:	8c e0       	ldi	r24, 0x0C	; 12
     d06:	89 1b       	sub	r24, r25
     d08:	68 2f       	mov	r22, r24
     d0a:	77 27       	eor	r23, r23
     d0c:	67 fd       	sbrc	r22, 7
     d0e:	70 95       	com	r23
     d10:	87 fd       	sbrc	r24, 7
     d12:	0a c0       	rjmp	.+20     	; 0xd28 <__stack+0x4c9>
     d14:	17 01       	movw	r2, r14
     d16:	28 01       	movw	r4, r16
     d18:	04 c0       	rjmp	.+8      	; 0xd22 <__stack+0x4c3>
     d1a:	22 0c       	add	r2, r2
     d1c:	33 1c       	adc	r3, r3
     d1e:	44 1c       	adc	r4, r4
     d20:	55 1c       	adc	r5, r5
     d22:	6a 95       	dec	r22
     d24:	d2 f7       	brpl	.-12     	; 0xd1a <__stack+0x4bb>
     d26:	0d c0       	rjmp	.+26     	; 0xd42 <__stack+0x4e3>
     d28:	88 27       	eor	r24, r24
     d2a:	99 27       	eor	r25, r25
     d2c:	86 1b       	sub	r24, r22
     d2e:	97 0b       	sbc	r25, r23
     d30:	17 01       	movw	r2, r14
     d32:	28 01       	movw	r4, r16
     d34:	04 c0       	rjmp	.+8      	; 0xd3e <__stack+0x4df>
     d36:	56 94       	lsr	r5
     d38:	47 94       	ror	r4
     d3a:	37 94       	ror	r3
     d3c:	27 94       	ror	r2
     d3e:	8a 95       	dec	r24
     d40:	d2 f7       	brpl	.-12     	; 0xd36 <__stack+0x4d7>
     d42:	80 91 7f 00 	lds	r24, 0x007F
     d46:	90 91 80 00 	lds	r25, 0x0080
     d4a:	a0 91 81 00 	lds	r26, 0x0081
     d4e:	b0 91 82 00 	lds	r27, 0x0082
     d52:	fc 01       	movw	r30, r24
     d54:	e4 56       	subi	r30, 0x64	; 100
     d56:	ff 4f       	sbci	r31, 0xFF	; 255
     d58:	84 91       	lpm	r24, Z+
     d5a:	e8 2e       	mov	r14, r24
     d5c:	ff 24       	eor	r15, r15
     d5e:	00 e0       	ldi	r16, 0x00	; 0
     d60:	10 e0       	ldi	r17, 0x00	; 0
     d62:	90 91 61 00 	lds	r25, 0x0061
     d66:	82 e1       	ldi	r24, 0x12	; 18
     d68:	89 1b       	sub	r24, r25
     d6a:	68 2f       	mov	r22, r24
     d6c:	77 27       	eor	r23, r23
     d6e:	67 fd       	sbrc	r22, 7
     d70:	70 95       	com	r23
     d72:	87 fd       	sbrc	r24, 7
     d74:	0a c0       	rjmp	.+20     	; 0xd8a <__stack+0x52b>
     d76:	37 01       	movw	r6, r14
     d78:	48 01       	movw	r8, r16
     d7a:	04 c0       	rjmp	.+8      	; 0xd84 <__stack+0x525>
     d7c:	66 0c       	add	r6, r6
     d7e:	77 1c       	adc	r7, r7
     d80:	88 1c       	adc	r8, r8
     d82:	99 1c       	adc	r9, r9
     d84:	6a 95       	dec	r22
     d86:	d2 f7       	brpl	.-12     	; 0xd7c <__stack+0x51d>
     d88:	0d c0       	rjmp	.+26     	; 0xda4 <__stack+0x545>
     d8a:	88 27       	eor	r24, r24
     d8c:	99 27       	eor	r25, r25
     d8e:	86 1b       	sub	r24, r22
     d90:	97 0b       	sbc	r25, r23
     d92:	37 01       	movw	r6, r14
     d94:	48 01       	movw	r8, r16
     d96:	04 c0       	rjmp	.+8      	; 0xda0 <__stack+0x541>
     d98:	96 94       	lsr	r9
     d9a:	87 94       	ror	r8
     d9c:	77 94       	ror	r7
     d9e:	67 94       	ror	r6
     da0:	8a 95       	dec	r24
     da2:	d2 f7       	brpl	.-12     	; 0xd98 <__stack+0x539>
     da4:	80 91 77 00 	lds	r24, 0x0077
     da8:	90 91 78 00 	lds	r25, 0x0078
     dac:	a0 91 79 00 	lds	r26, 0x0079
     db0:	b0 91 7a 00 	lds	r27, 0x007A
     db4:	fc 01       	movw	r30, r24
     db6:	e4 56       	subi	r30, 0x64	; 100
     db8:	ff 4f       	sbci	r31, 0xFF	; 255
     dba:	84 91       	lpm	r24, Z+
     dbc:	e8 2e       	mov	r14, r24
     dbe:	ff 24       	eor	r15, r15
     dc0:	00 e0       	ldi	r16, 0x00	; 0
     dc2:	10 e0       	ldi	r17, 0x00	; 0
     dc4:	90 91 61 00 	lds	r25, 0x0061
     dc8:	88 e1       	ldi	r24, 0x18	; 24
     dca:	89 1b       	sub	r24, r25
     dcc:	68 2f       	mov	r22, r24
     dce:	77 27       	eor	r23, r23
     dd0:	67 fd       	sbrc	r22, 7
     dd2:	70 95       	com	r23
     dd4:	87 fd       	sbrc	r24, 7
     dd6:	0a c0       	rjmp	.+20     	; 0xdec <__stack+0x58d>
     dd8:	57 01       	movw	r10, r14
     dda:	68 01       	movw	r12, r16
     ddc:	04 c0       	rjmp	.+8      	; 0xde6 <__stack+0x587>
     dde:	aa 0c       	add	r10, r10
     de0:	bb 1c       	adc	r11, r11
     de2:	cc 1c       	adc	r12, r12
     de4:	dd 1c       	adc	r13, r13
     de6:	6a 95       	dec	r22
     de8:	d2 f7       	brpl	.-12     	; 0xdde <__stack+0x57f>
     dea:	0d c0       	rjmp	.+26     	; 0xe06 <__stack+0x5a7>
     dec:	88 27       	eor	r24, r24
     dee:	99 27       	eor	r25, r25
     df0:	86 1b       	sub	r24, r22
     df2:	97 0b       	sbc	r25, r23
     df4:	57 01       	movw	r10, r14
     df6:	68 01       	movw	r12, r16
     df8:	04 c0       	rjmp	.+8      	; 0xe02 <__stack+0x5a3>
     dfa:	d6 94       	lsr	r13
     dfc:	c7 94       	ror	r12
     dfe:	b7 94       	ror	r11
     e00:	a7 94       	ror	r10
     e02:	8a 95       	dec	r24
     e04:	d2 f7       	brpl	.-12     	; 0xdfa <__stack+0x59b>
     e06:	80 91 67 00 	lds	r24, 0x0067
     e0a:	90 91 68 00 	lds	r25, 0x0068
     e0e:	a0 91 69 00 	lds	r26, 0x0069
     e12:	b0 91 6a 00 	lds	r27, 0x006A
     e16:	fc 01       	movw	r30, r24
     e18:	e4 56       	subi	r30, 0x64	; 100
     e1a:	ff 4f       	sbci	r31, 0xFF	; 255
     e1c:	84 91       	lpm	r24, Z+
     e1e:	e8 2e       	mov	r14, r24
     e20:	ff 24       	eor	r15, r15
     e22:	00 e0       	ldi	r16, 0x00	; 0
     e24:	10 e0       	ldi	r17, 0x00	; 0
     e26:	e9 a2       	std	Y+33, r14	; 0x21
     e28:	fa a2       	std	Y+34, r15	; 0x22
     e2a:	0b a3       	std	Y+35, r16	; 0x23
     e2c:	1c a3       	std	Y+36, r17	; 0x24
     e2e:	90 91 61 00 	lds	r25, 0x0061
     e32:	8e e1       	ldi	r24, 0x1E	; 30
     e34:	89 1b       	sub	r24, r25
     e36:	68 2f       	mov	r22, r24
     e38:	77 27       	eor	r23, r23
     e3a:	67 fd       	sbrc	r22, 7
     e3c:	70 95       	com	r23
     e3e:	87 fd       	sbrc	r24, 7
     e40:	0a c0       	rjmp	.+20     	; 0xe56 <__stack+0x5f7>
     e42:	d8 01       	movw	r26, r16
     e44:	c7 01       	movw	r24, r14
     e46:	04 c0       	rjmp	.+8      	; 0xe50 <__stack+0x5f1>
     e48:	88 0f       	add	r24, r24
     e4a:	99 1f       	adc	r25, r25
     e4c:	aa 1f       	adc	r26, r26
     e4e:	bb 1f       	adc	r27, r27
     e50:	6a 95       	dec	r22
     e52:	d2 f7       	brpl	.-12     	; 0xe48 <__stack+0x5e9>
     e54:	11 c0       	rjmp	.+34     	; 0xe78 <__stack+0x619>
     e56:	88 27       	eor	r24, r24
     e58:	99 27       	eor	r25, r25
     e5a:	86 1b       	sub	r24, r22
     e5c:	97 0b       	sbc	r25, r23
     e5e:	e9 a0       	ldd	r14, Y+33	; 0x21
     e60:	fa a0       	ldd	r15, Y+34	; 0x22
     e62:	0b a1       	ldd	r16, Y+35	; 0x23
     e64:	1c a1       	ldd	r17, Y+36	; 0x24
     e66:	04 c0       	rjmp	.+8      	; 0xe70 <__stack+0x611>
     e68:	16 95       	lsr	r17
     e6a:	07 95       	ror	r16
     e6c:	f7 94       	ror	r15
     e6e:	e7 94       	ror	r14
     e70:	8a 95       	dec	r24
     e72:	d2 f7       	brpl	.-12     	; 0xe68 <__stack+0x609>
     e74:	d8 01       	movw	r26, r16
     e76:	c7 01       	movw	r24, r14
     e78:	ed 88       	ldd	r14, Y+21	; 0x15
     e7a:	fe 88       	ldd	r15, Y+22	; 0x16
     e7c:	0f 89       	ldd	r16, Y+23	; 0x17
     e7e:	18 8d       	ldd	r17, Y+24	; 0x18
     e80:	17 c6       	rjmp	.+3118   	; 0x1ab0 <__stack+0x1251>
     e82:	87 ef       	ldi	r24, 0xF7	; 247
     e84:	82 bb       	out	0x12, r24	; 18
     e86:	80 91 6f 00 	lds	r24, 0x006F
     e8a:	90 91 70 00 	lds	r25, 0x0070
     e8e:	a0 91 71 00 	lds	r26, 0x0071
     e92:	b0 91 72 00 	lds	r27, 0x0072
     e96:	fc 01       	movw	r30, r24
     e98:	e0 54       	subi	r30, 0x40	; 64
     e9a:	ff 4f       	sbci	r31, 0xFF	; 255
     e9c:	84 91       	lpm	r24, Z+
     e9e:	28 2f       	mov	r18, r24
     ea0:	30 e0       	ldi	r19, 0x00	; 0
     ea2:	40 e0       	ldi	r20, 0x00	; 0
     ea4:	50 e0       	ldi	r21, 0x00	; 0
     ea6:	80 91 61 00 	lds	r24, 0x0061
     eaa:	81 95       	neg	r24
     eac:	68 2f       	mov	r22, r24
     eae:	77 27       	eor	r23, r23
     eb0:	67 fd       	sbrc	r22, 7
     eb2:	70 95       	com	r23
     eb4:	87 fd       	sbrc	r24, 7
     eb6:	0e c0       	rjmp	.+28     	; 0xed4 <__stack+0x675>
     eb8:	da 01       	movw	r26, r20
     eba:	c9 01       	movw	r24, r18
     ebc:	04 c0       	rjmp	.+8      	; 0xec6 <__stack+0x667>
     ebe:	88 0f       	add	r24, r24
     ec0:	99 1f       	adc	r25, r25
     ec2:	aa 1f       	adc	r26, r26
     ec4:	bb 1f       	adc	r27, r27
     ec6:	6a 95       	dec	r22
     ec8:	d2 f7       	brpl	.-12     	; 0xebe <__stack+0x65f>
     eca:	89 8b       	std	Y+17, r24	; 0x11
     ecc:	9a 8b       	std	Y+18, r25	; 0x12
     ece:	ab 8b       	std	Y+19, r26	; 0x13
     ed0:	bc 8b       	std	Y+20, r27	; 0x14
     ed2:	11 c0       	rjmp	.+34     	; 0xef6 <__stack+0x697>
     ed4:	88 27       	eor	r24, r24
     ed6:	99 27       	eor	r25, r25
     ed8:	86 1b       	sub	r24, r22
     eda:	97 0b       	sbc	r25, r23
     edc:	79 01       	movw	r14, r18
     ede:	8a 01       	movw	r16, r20
     ee0:	04 c0       	rjmp	.+8      	; 0xeea <__stack+0x68b>
     ee2:	16 95       	lsr	r17
     ee4:	07 95       	ror	r16
     ee6:	f7 94       	ror	r15
     ee8:	e7 94       	ror	r14
     eea:	8a 95       	dec	r24
     eec:	d2 f7       	brpl	.-12     	; 0xee2 <__stack+0x683>
     eee:	e9 8a       	std	Y+17, r14	; 0x11
     ef0:	fa 8a       	std	Y+18, r15	; 0x12
     ef2:	0b 8b       	std	Y+19, r16	; 0x13
     ef4:	1c 8b       	std	Y+20, r17	; 0x14
     ef6:	80 91 73 00 	lds	r24, 0x0073
     efa:	90 91 74 00 	lds	r25, 0x0074
     efe:	a0 91 75 00 	lds	r26, 0x0075
     f02:	b0 91 76 00 	lds	r27, 0x0076
     f06:	fc 01       	movw	r30, r24
     f08:	e0 54       	subi	r30, 0x40	; 64
     f0a:	ff 4f       	sbci	r31, 0xFF	; 255
     f0c:	84 91       	lpm	r24, Z+
     f0e:	28 2f       	mov	r18, r24
     f10:	30 e0       	ldi	r19, 0x00	; 0
     f12:	40 e0       	ldi	r20, 0x00	; 0
     f14:	50 e0       	ldi	r21, 0x00	; 0
     f16:	90 91 61 00 	lds	r25, 0x0061
     f1a:	86 e0       	ldi	r24, 0x06	; 6
     f1c:	89 1b       	sub	r24, r25
     f1e:	68 2f       	mov	r22, r24
     f20:	77 27       	eor	r23, r23
     f22:	67 fd       	sbrc	r22, 7
     f24:	70 95       	com	r23
     f26:	87 fd       	sbrc	r24, 7
     f28:	08 c0       	rjmp	.+16     	; 0xf3a <__stack+0x6db>
     f2a:	04 c0       	rjmp	.+8      	; 0xf34 <__stack+0x6d5>
     f2c:	22 0f       	add	r18, r18
     f2e:	33 1f       	adc	r19, r19
     f30:	44 1f       	adc	r20, r20
     f32:	55 1f       	adc	r21, r21
     f34:	6a 95       	dec	r22
     f36:	d2 f7       	brpl	.-12     	; 0xf2c <__stack+0x6cd>
     f38:	0b c0       	rjmp	.+22     	; 0xf50 <__stack+0x6f1>
     f3a:	88 27       	eor	r24, r24
     f3c:	99 27       	eor	r25, r25
     f3e:	86 1b       	sub	r24, r22
     f40:	97 0b       	sbc	r25, r23
     f42:	04 c0       	rjmp	.+8      	; 0xf4c <__stack+0x6ed>
     f44:	56 95       	lsr	r21
     f46:	47 95       	ror	r20
     f48:	37 95       	ror	r19
     f4a:	27 95       	ror	r18
     f4c:	8a 95       	dec	r24
     f4e:	d2 f7       	brpl	.-12     	; 0xf44 <__stack+0x6e5>
     f50:	80 91 7b 00 	lds	r24, 0x007B
     f54:	90 91 7c 00 	lds	r25, 0x007C
     f58:	a0 91 7d 00 	lds	r26, 0x007D
     f5c:	b0 91 7e 00 	lds	r27, 0x007E
     f60:	fc 01       	movw	r30, r24
     f62:	e0 54       	subi	r30, 0x40	; 64
     f64:	ff 4f       	sbci	r31, 0xFF	; 255
     f66:	84 91       	lpm	r24, Z+
     f68:	e8 2e       	mov	r14, r24
     f6a:	ff 24       	eor	r15, r15
     f6c:	00 e0       	ldi	r16, 0x00	; 0
     f6e:	10 e0       	ldi	r17, 0x00	; 0
     f70:	90 91 61 00 	lds	r25, 0x0061
     f74:	8c e0       	ldi	r24, 0x0C	; 12
     f76:	89 1b       	sub	r24, r25
     f78:	68 2f       	mov	r22, r24
     f7a:	77 27       	eor	r23, r23
     f7c:	67 fd       	sbrc	r22, 7
     f7e:	70 95       	com	r23
     f80:	87 fd       	sbrc	r24, 7
     f82:	0a c0       	rjmp	.+20     	; 0xf98 <__stack+0x739>
     f84:	17 01       	movw	r2, r14
     f86:	28 01       	movw	r4, r16
     f88:	04 c0       	rjmp	.+8      	; 0xf92 <__stack+0x733>
     f8a:	22 0c       	add	r2, r2
     f8c:	33 1c       	adc	r3, r3
     f8e:	44 1c       	adc	r4, r4
     f90:	55 1c       	adc	r5, r5
     f92:	6a 95       	dec	r22
     f94:	d2 f7       	brpl	.-12     	; 0xf8a <__stack+0x72b>
     f96:	0d c0       	rjmp	.+26     	; 0xfb2 <__stack+0x753>
     f98:	88 27       	eor	r24, r24
     f9a:	99 27       	eor	r25, r25
     f9c:	86 1b       	sub	r24, r22
     f9e:	97 0b       	sbc	r25, r23
     fa0:	17 01       	movw	r2, r14
     fa2:	28 01       	movw	r4, r16
     fa4:	04 c0       	rjmp	.+8      	; 0xfae <__stack+0x74f>
     fa6:	56 94       	lsr	r5
     fa8:	47 94       	ror	r4
     faa:	37 94       	ror	r3
     fac:	27 94       	ror	r2
     fae:	8a 95       	dec	r24
     fb0:	d2 f7       	brpl	.-12     	; 0xfa6 <__stack+0x747>
     fb2:	80 91 7f 00 	lds	r24, 0x007F
     fb6:	90 91 80 00 	lds	r25, 0x0080
     fba:	a0 91 81 00 	lds	r26, 0x0081
     fbe:	b0 91 82 00 	lds	r27, 0x0082
     fc2:	fc 01       	movw	r30, r24
     fc4:	e0 54       	subi	r30, 0x40	; 64
     fc6:	ff 4f       	sbci	r31, 0xFF	; 255
     fc8:	84 91       	lpm	r24, Z+
     fca:	e8 2e       	mov	r14, r24
     fcc:	ff 24       	eor	r15, r15
     fce:	00 e0       	ldi	r16, 0x00	; 0
     fd0:	10 e0       	ldi	r17, 0x00	; 0
     fd2:	90 91 61 00 	lds	r25, 0x0061
     fd6:	82 e1       	ldi	r24, 0x12	; 18
     fd8:	89 1b       	sub	r24, r25
     fda:	68 2f       	mov	r22, r24
     fdc:	77 27       	eor	r23, r23
     fde:	67 fd       	sbrc	r22, 7
     fe0:	70 95       	com	r23
     fe2:	87 fd       	sbrc	r24, 7
     fe4:	0a c0       	rjmp	.+20     	; 0xffa <__stack+0x79b>
     fe6:	37 01       	movw	r6, r14
     fe8:	48 01       	movw	r8, r16
     fea:	04 c0       	rjmp	.+8      	; 0xff4 <__stack+0x795>
     fec:	66 0c       	add	r6, r6
     fee:	77 1c       	adc	r7, r7
     ff0:	88 1c       	adc	r8, r8
     ff2:	99 1c       	adc	r9, r9
     ff4:	6a 95       	dec	r22
     ff6:	d2 f7       	brpl	.-12     	; 0xfec <__stack+0x78d>
     ff8:	0d c0       	rjmp	.+26     	; 0x1014 <__stack+0x7b5>
     ffa:	88 27       	eor	r24, r24
     ffc:	99 27       	eor	r25, r25
     ffe:	86 1b       	sub	r24, r22
    1000:	97 0b       	sbc	r25, r23
    1002:	37 01       	movw	r6, r14
    1004:	48 01       	movw	r8, r16
    1006:	04 c0       	rjmp	.+8      	; 0x1010 <__stack+0x7b1>
    1008:	96 94       	lsr	r9
    100a:	87 94       	ror	r8
    100c:	77 94       	ror	r7
    100e:	67 94       	ror	r6
    1010:	8a 95       	dec	r24
    1012:	d2 f7       	brpl	.-12     	; 0x1008 <__stack+0x7a9>
    1014:	80 91 77 00 	lds	r24, 0x0077
    1018:	90 91 78 00 	lds	r25, 0x0078
    101c:	a0 91 79 00 	lds	r26, 0x0079
    1020:	b0 91 7a 00 	lds	r27, 0x007A
    1024:	fc 01       	movw	r30, r24
    1026:	e0 54       	subi	r30, 0x40	; 64
    1028:	ff 4f       	sbci	r31, 0xFF	; 255
    102a:	84 91       	lpm	r24, Z+
    102c:	e8 2e       	mov	r14, r24
    102e:	ff 24       	eor	r15, r15
    1030:	00 e0       	ldi	r16, 0x00	; 0
    1032:	10 e0       	ldi	r17, 0x00	; 0
    1034:	90 91 61 00 	lds	r25, 0x0061
    1038:	88 e1       	ldi	r24, 0x18	; 24
    103a:	89 1b       	sub	r24, r25
    103c:	68 2f       	mov	r22, r24
    103e:	77 27       	eor	r23, r23
    1040:	67 fd       	sbrc	r22, 7
    1042:	70 95       	com	r23
    1044:	87 fd       	sbrc	r24, 7
    1046:	0a c0       	rjmp	.+20     	; 0x105c <__stack+0x7fd>
    1048:	57 01       	movw	r10, r14
    104a:	68 01       	movw	r12, r16
    104c:	04 c0       	rjmp	.+8      	; 0x1056 <__stack+0x7f7>
    104e:	aa 0c       	add	r10, r10
    1050:	bb 1c       	adc	r11, r11
    1052:	cc 1c       	adc	r12, r12
    1054:	dd 1c       	adc	r13, r13
    1056:	6a 95       	dec	r22
    1058:	d2 f7       	brpl	.-12     	; 0x104e <__stack+0x7ef>
    105a:	0d c0       	rjmp	.+26     	; 0x1076 <__stack+0x817>
    105c:	88 27       	eor	r24, r24
    105e:	99 27       	eor	r25, r25
    1060:	86 1b       	sub	r24, r22
    1062:	97 0b       	sbc	r25, r23
    1064:	57 01       	movw	r10, r14
    1066:	68 01       	movw	r12, r16
    1068:	04 c0       	rjmp	.+8      	; 0x1072 <__stack+0x813>
    106a:	d6 94       	lsr	r13
    106c:	c7 94       	ror	r12
    106e:	b7 94       	ror	r11
    1070:	a7 94       	ror	r10
    1072:	8a 95       	dec	r24
    1074:	d2 f7       	brpl	.-12     	; 0x106a <__stack+0x80b>
    1076:	80 91 67 00 	lds	r24, 0x0067
    107a:	90 91 68 00 	lds	r25, 0x0068
    107e:	a0 91 69 00 	lds	r26, 0x0069
    1082:	b0 91 6a 00 	lds	r27, 0x006A
    1086:	fc 01       	movw	r30, r24
    1088:	e0 54       	subi	r30, 0x40	; 64
    108a:	ff 4f       	sbci	r31, 0xFF	; 255
    108c:	84 91       	lpm	r24, Z+
    108e:	e8 2e       	mov	r14, r24
    1090:	ff 24       	eor	r15, r15
    1092:	00 e0       	ldi	r16, 0x00	; 0
    1094:	10 e0       	ldi	r17, 0x00	; 0
    1096:	e9 a2       	std	Y+33, r14	; 0x21
    1098:	fa a2       	std	Y+34, r15	; 0x22
    109a:	0b a3       	std	Y+35, r16	; 0x23
    109c:	1c a3       	std	Y+36, r17	; 0x24
    109e:	90 91 61 00 	lds	r25, 0x0061
    10a2:	8e e1       	ldi	r24, 0x1E	; 30
    10a4:	89 1b       	sub	r24, r25
    10a6:	68 2f       	mov	r22, r24
    10a8:	77 27       	eor	r23, r23
    10aa:	67 fd       	sbrc	r22, 7
    10ac:	70 95       	com	r23
    10ae:	87 fd       	sbrc	r24, 7
    10b0:	0a c0       	rjmp	.+20     	; 0x10c6 <__stack+0x867>
    10b2:	d8 01       	movw	r26, r16
    10b4:	c7 01       	movw	r24, r14
    10b6:	04 c0       	rjmp	.+8      	; 0x10c0 <__stack+0x861>
    10b8:	88 0f       	add	r24, r24
    10ba:	99 1f       	adc	r25, r25
    10bc:	aa 1f       	adc	r26, r26
    10be:	bb 1f       	adc	r27, r27
    10c0:	6a 95       	dec	r22
    10c2:	d2 f7       	brpl	.-12     	; 0x10b8 <__stack+0x859>
    10c4:	11 c0       	rjmp	.+34     	; 0x10e8 <__stack+0x889>
    10c6:	88 27       	eor	r24, r24
    10c8:	99 27       	eor	r25, r25
    10ca:	86 1b       	sub	r24, r22
    10cc:	97 0b       	sbc	r25, r23
    10ce:	e9 a0       	ldd	r14, Y+33	; 0x21
    10d0:	fa a0       	ldd	r15, Y+34	; 0x22
    10d2:	0b a1       	ldd	r16, Y+35	; 0x23
    10d4:	1c a1       	ldd	r17, Y+36	; 0x24
    10d6:	04 c0       	rjmp	.+8      	; 0x10e0 <__stack+0x881>
    10d8:	16 95       	lsr	r17
    10da:	07 95       	ror	r16
    10dc:	f7 94       	ror	r15
    10de:	e7 94       	ror	r14
    10e0:	8a 95       	dec	r24
    10e2:	d2 f7       	brpl	.-12     	; 0x10d8 <__stack+0x879>
    10e4:	d8 01       	movw	r26, r16
    10e6:	c7 01       	movw	r24, r14
    10e8:	e9 88       	ldd	r14, Y+17	; 0x11
    10ea:	fa 88       	ldd	r15, Y+18	; 0x12
    10ec:	0b 89       	ldd	r16, Y+19	; 0x13
    10ee:	1c 89       	ldd	r17, Y+20	; 0x14
    10f0:	df c4       	rjmp	.+2494   	; 0x1ab0 <__stack+0x1251>
    10f2:	8f ee       	ldi	r24, 0xEF	; 239
    10f4:	82 bb       	out	0x12, r24	; 18
    10f6:	80 91 6f 00 	lds	r24, 0x006F
    10fa:	90 91 70 00 	lds	r25, 0x0070
    10fe:	a0 91 71 00 	lds	r26, 0x0071
    1102:	b0 91 72 00 	lds	r27, 0x0072
    1106:	fc 01       	movw	r30, r24
    1108:	ec 51       	subi	r30, 0x1C	; 28
    110a:	ff 4f       	sbci	r31, 0xFF	; 255
    110c:	84 91       	lpm	r24, Z+
    110e:	28 2f       	mov	r18, r24
    1110:	30 e0       	ldi	r19, 0x00	; 0
    1112:	40 e0       	ldi	r20, 0x00	; 0
    1114:	50 e0       	ldi	r21, 0x00	; 0
    1116:	80 91 61 00 	lds	r24, 0x0061
    111a:	81 95       	neg	r24
    111c:	68 2f       	mov	r22, r24
    111e:	77 27       	eor	r23, r23
    1120:	67 fd       	sbrc	r22, 7
    1122:	70 95       	com	r23
    1124:	87 fd       	sbrc	r24, 7
    1126:	0e c0       	rjmp	.+28     	; 0x1144 <__stack+0x8e5>
    1128:	da 01       	movw	r26, r20
    112a:	c9 01       	movw	r24, r18
    112c:	04 c0       	rjmp	.+8      	; 0x1136 <__stack+0x8d7>
    112e:	88 0f       	add	r24, r24
    1130:	99 1f       	adc	r25, r25
    1132:	aa 1f       	adc	r26, r26
    1134:	bb 1f       	adc	r27, r27
    1136:	6a 95       	dec	r22
    1138:	d2 f7       	brpl	.-12     	; 0x112e <__stack+0x8cf>
    113a:	8d 87       	std	Y+13, r24	; 0x0d
    113c:	9e 87       	std	Y+14, r25	; 0x0e
    113e:	af 87       	std	Y+15, r26	; 0x0f
    1140:	b8 8b       	std	Y+16, r27	; 0x10
    1142:	11 c0       	rjmp	.+34     	; 0x1166 <__stack+0x907>
    1144:	88 27       	eor	r24, r24
    1146:	99 27       	eor	r25, r25
    1148:	86 1b       	sub	r24, r22
    114a:	97 0b       	sbc	r25, r23
    114c:	79 01       	movw	r14, r18
    114e:	8a 01       	movw	r16, r20
    1150:	04 c0       	rjmp	.+8      	; 0x115a <__stack+0x8fb>
    1152:	16 95       	lsr	r17
    1154:	07 95       	ror	r16
    1156:	f7 94       	ror	r15
    1158:	e7 94       	ror	r14
    115a:	8a 95       	dec	r24
    115c:	d2 f7       	brpl	.-12     	; 0x1152 <__stack+0x8f3>
    115e:	ed 86       	std	Y+13, r14	; 0x0d
    1160:	fe 86       	std	Y+14, r15	; 0x0e
    1162:	0f 87       	std	Y+15, r16	; 0x0f
    1164:	18 8b       	std	Y+16, r17	; 0x10
    1166:	80 91 73 00 	lds	r24, 0x0073
    116a:	90 91 74 00 	lds	r25, 0x0074
    116e:	a0 91 75 00 	lds	r26, 0x0075
    1172:	b0 91 76 00 	lds	r27, 0x0076
    1176:	fc 01       	movw	r30, r24
    1178:	ec 51       	subi	r30, 0x1C	; 28
    117a:	ff 4f       	sbci	r31, 0xFF	; 255
    117c:	84 91       	lpm	r24, Z+
    117e:	28 2f       	mov	r18, r24
    1180:	30 e0       	ldi	r19, 0x00	; 0
    1182:	40 e0       	ldi	r20, 0x00	; 0
    1184:	50 e0       	ldi	r21, 0x00	; 0
    1186:	90 91 61 00 	lds	r25, 0x0061
    118a:	86 e0       	ldi	r24, 0x06	; 6
    118c:	89 1b       	sub	r24, r25
    118e:	68 2f       	mov	r22, r24
    1190:	77 27       	eor	r23, r23
    1192:	67 fd       	sbrc	r22, 7
    1194:	70 95       	com	r23
    1196:	87 fd       	sbrc	r24, 7
    1198:	08 c0       	rjmp	.+16     	; 0x11aa <__stack+0x94b>
    119a:	04 c0       	rjmp	.+8      	; 0x11a4 <__stack+0x945>
    119c:	22 0f       	add	r18, r18
    119e:	33 1f       	adc	r19, r19
    11a0:	44 1f       	adc	r20, r20
    11a2:	55 1f       	adc	r21, r21
    11a4:	6a 95       	dec	r22
    11a6:	d2 f7       	brpl	.-12     	; 0x119c <__stack+0x93d>
    11a8:	0b c0       	rjmp	.+22     	; 0x11c0 <__stack+0x961>
    11aa:	88 27       	eor	r24, r24
    11ac:	99 27       	eor	r25, r25
    11ae:	86 1b       	sub	r24, r22
    11b0:	97 0b       	sbc	r25, r23
    11b2:	04 c0       	rjmp	.+8      	; 0x11bc <__stack+0x95d>
    11b4:	56 95       	lsr	r21
    11b6:	47 95       	ror	r20
    11b8:	37 95       	ror	r19
    11ba:	27 95       	ror	r18
    11bc:	8a 95       	dec	r24
    11be:	d2 f7       	brpl	.-12     	; 0x11b4 <__stack+0x955>
    11c0:	80 91 7b 00 	lds	r24, 0x007B
    11c4:	90 91 7c 00 	lds	r25, 0x007C
    11c8:	a0 91 7d 00 	lds	r26, 0x007D
    11cc:	b0 91 7e 00 	lds	r27, 0x007E
    11d0:	fc 01       	movw	r30, r24
    11d2:	ec 51       	subi	r30, 0x1C	; 28
    11d4:	ff 4f       	sbci	r31, 0xFF	; 255
    11d6:	84 91       	lpm	r24, Z+
    11d8:	e8 2e       	mov	r14, r24
    11da:	ff 24       	eor	r15, r15
    11dc:	00 e0       	ldi	r16, 0x00	; 0
    11de:	10 e0       	ldi	r17, 0x00	; 0
    11e0:	90 91 61 00 	lds	r25, 0x0061
    11e4:	8c e0       	ldi	r24, 0x0C	; 12
    11e6:	89 1b       	sub	r24, r25
    11e8:	68 2f       	mov	r22, r24
    11ea:	77 27       	eor	r23, r23
    11ec:	67 fd       	sbrc	r22, 7
    11ee:	70 95       	com	r23
    11f0:	87 fd       	sbrc	r24, 7
    11f2:	0a c0       	rjmp	.+20     	; 0x1208 <__stack+0x9a9>
    11f4:	17 01       	movw	r2, r14
    11f6:	28 01       	movw	r4, r16
    11f8:	04 c0       	rjmp	.+8      	; 0x1202 <__stack+0x9a3>
    11fa:	22 0c       	add	r2, r2
    11fc:	33 1c       	adc	r3, r3
    11fe:	44 1c       	adc	r4, r4
    1200:	55 1c       	adc	r5, r5
    1202:	6a 95       	dec	r22
    1204:	d2 f7       	brpl	.-12     	; 0x11fa <__stack+0x99b>
    1206:	0d c0       	rjmp	.+26     	; 0x1222 <__stack+0x9c3>
    1208:	88 27       	eor	r24, r24
    120a:	99 27       	eor	r25, r25
    120c:	86 1b       	sub	r24, r22
    120e:	97 0b       	sbc	r25, r23
    1210:	17 01       	movw	r2, r14
    1212:	28 01       	movw	r4, r16
    1214:	04 c0       	rjmp	.+8      	; 0x121e <__stack+0x9bf>
    1216:	56 94       	lsr	r5
    1218:	47 94       	ror	r4
    121a:	37 94       	ror	r3
    121c:	27 94       	ror	r2
    121e:	8a 95       	dec	r24
    1220:	d2 f7       	brpl	.-12     	; 0x1216 <__stack+0x9b7>
    1222:	80 91 7f 00 	lds	r24, 0x007F
    1226:	90 91 80 00 	lds	r25, 0x0080
    122a:	a0 91 81 00 	lds	r26, 0x0081
    122e:	b0 91 82 00 	lds	r27, 0x0082
    1232:	fc 01       	movw	r30, r24
    1234:	ec 51       	subi	r30, 0x1C	; 28
    1236:	ff 4f       	sbci	r31, 0xFF	; 255
    1238:	84 91       	lpm	r24, Z+
    123a:	e8 2e       	mov	r14, r24
    123c:	ff 24       	eor	r15, r15
    123e:	00 e0       	ldi	r16, 0x00	; 0
    1240:	10 e0       	ldi	r17, 0x00	; 0
    1242:	90 91 61 00 	lds	r25, 0x0061
    1246:	82 e1       	ldi	r24, 0x12	; 18
    1248:	89 1b       	sub	r24, r25
    124a:	68 2f       	mov	r22, r24
    124c:	77 27       	eor	r23, r23
    124e:	67 fd       	sbrc	r22, 7
    1250:	70 95       	com	r23
    1252:	87 fd       	sbrc	r24, 7
    1254:	0a c0       	rjmp	.+20     	; 0x126a <__stack+0xa0b>
    1256:	37 01       	movw	r6, r14
    1258:	48 01       	movw	r8, r16
    125a:	04 c0       	rjmp	.+8      	; 0x1264 <__stack+0xa05>
    125c:	66 0c       	add	r6, r6
    125e:	77 1c       	adc	r7, r7
    1260:	88 1c       	adc	r8, r8
    1262:	99 1c       	adc	r9, r9
    1264:	6a 95       	dec	r22
    1266:	d2 f7       	brpl	.-12     	; 0x125c <__stack+0x9fd>
    1268:	0d c0       	rjmp	.+26     	; 0x1284 <__stack+0xa25>
    126a:	88 27       	eor	r24, r24
    126c:	99 27       	eor	r25, r25
    126e:	86 1b       	sub	r24, r22
    1270:	97 0b       	sbc	r25, r23
    1272:	37 01       	movw	r6, r14
    1274:	48 01       	movw	r8, r16
    1276:	04 c0       	rjmp	.+8      	; 0x1280 <__stack+0xa21>
    1278:	96 94       	lsr	r9
    127a:	87 94       	ror	r8
    127c:	77 94       	ror	r7
    127e:	67 94       	ror	r6
    1280:	8a 95       	dec	r24
    1282:	d2 f7       	brpl	.-12     	; 0x1278 <__stack+0xa19>
    1284:	80 91 77 00 	lds	r24, 0x0077
    1288:	90 91 78 00 	lds	r25, 0x0078
    128c:	a0 91 79 00 	lds	r26, 0x0079
    1290:	b0 91 7a 00 	lds	r27, 0x007A
    1294:	fc 01       	movw	r30, r24
    1296:	ec 51       	subi	r30, 0x1C	; 28
    1298:	ff 4f       	sbci	r31, 0xFF	; 255
    129a:	84 91       	lpm	r24, Z+
    129c:	e8 2e       	mov	r14, r24
    129e:	ff 24       	eor	r15, r15
    12a0:	00 e0       	ldi	r16, 0x00	; 0
    12a2:	10 e0       	ldi	r17, 0x00	; 0
    12a4:	90 91 61 00 	lds	r25, 0x0061
    12a8:	88 e1       	ldi	r24, 0x18	; 24
    12aa:	89 1b       	sub	r24, r25
    12ac:	68 2f       	mov	r22, r24
    12ae:	77 27       	eor	r23, r23
    12b0:	67 fd       	sbrc	r22, 7
    12b2:	70 95       	com	r23
    12b4:	87 fd       	sbrc	r24, 7
    12b6:	0a c0       	rjmp	.+20     	; 0x12cc <__stack+0xa6d>
    12b8:	57 01       	movw	r10, r14
    12ba:	68 01       	movw	r12, r16
    12bc:	04 c0       	rjmp	.+8      	; 0x12c6 <__stack+0xa67>
    12be:	aa 0c       	add	r10, r10
    12c0:	bb 1c       	adc	r11, r11
    12c2:	cc 1c       	adc	r12, r12
    12c4:	dd 1c       	adc	r13, r13
    12c6:	6a 95       	dec	r22
    12c8:	d2 f7       	brpl	.-12     	; 0x12be <__stack+0xa5f>
    12ca:	0d c0       	rjmp	.+26     	; 0x12e6 <__stack+0xa87>
    12cc:	88 27       	eor	r24, r24
    12ce:	99 27       	eor	r25, r25
    12d0:	86 1b       	sub	r24, r22
    12d2:	97 0b       	sbc	r25, r23
    12d4:	57 01       	movw	r10, r14
    12d6:	68 01       	movw	r12, r16
    12d8:	04 c0       	rjmp	.+8      	; 0x12e2 <__stack+0xa83>
    12da:	d6 94       	lsr	r13
    12dc:	c7 94       	ror	r12
    12de:	b7 94       	ror	r11
    12e0:	a7 94       	ror	r10
    12e2:	8a 95       	dec	r24
    12e4:	d2 f7       	brpl	.-12     	; 0x12da <__stack+0xa7b>
    12e6:	80 91 67 00 	lds	r24, 0x0067
    12ea:	90 91 68 00 	lds	r25, 0x0068
    12ee:	a0 91 69 00 	lds	r26, 0x0069
    12f2:	b0 91 6a 00 	lds	r27, 0x006A
    12f6:	fc 01       	movw	r30, r24
    12f8:	ec 51       	subi	r30, 0x1C	; 28
    12fa:	ff 4f       	sbci	r31, 0xFF	; 255
    12fc:	84 91       	lpm	r24, Z+
    12fe:	e8 2e       	mov	r14, r24
    1300:	ff 24       	eor	r15, r15
    1302:	00 e0       	ldi	r16, 0x00	; 0
    1304:	10 e0       	ldi	r17, 0x00	; 0
    1306:	e9 a2       	std	Y+33, r14	; 0x21
    1308:	fa a2       	std	Y+34, r15	; 0x22
    130a:	0b a3       	std	Y+35, r16	; 0x23
    130c:	1c a3       	std	Y+36, r17	; 0x24
    130e:	90 91 61 00 	lds	r25, 0x0061
    1312:	8e e1       	ldi	r24, 0x1E	; 30
    1314:	89 1b       	sub	r24, r25
    1316:	68 2f       	mov	r22, r24
    1318:	77 27       	eor	r23, r23
    131a:	67 fd       	sbrc	r22, 7
    131c:	70 95       	com	r23
    131e:	87 fd       	sbrc	r24, 7
    1320:	0a c0       	rjmp	.+20     	; 0x1336 <__stack+0xad7>
    1322:	d8 01       	movw	r26, r16
    1324:	c7 01       	movw	r24, r14
    1326:	04 c0       	rjmp	.+8      	; 0x1330 <__stack+0xad1>
    1328:	88 0f       	add	r24, r24
    132a:	99 1f       	adc	r25, r25
    132c:	aa 1f       	adc	r26, r26
    132e:	bb 1f       	adc	r27, r27
    1330:	6a 95       	dec	r22
    1332:	d2 f7       	brpl	.-12     	; 0x1328 <__stack+0xac9>
    1334:	11 c0       	rjmp	.+34     	; 0x1358 <__stack+0xaf9>
    1336:	88 27       	eor	r24, r24
    1338:	99 27       	eor	r25, r25
    133a:	86 1b       	sub	r24, r22
    133c:	97 0b       	sbc	r25, r23
    133e:	e9 a0       	ldd	r14, Y+33	; 0x21
    1340:	fa a0       	ldd	r15, Y+34	; 0x22
    1342:	0b a1       	ldd	r16, Y+35	; 0x23
    1344:	1c a1       	ldd	r17, Y+36	; 0x24
    1346:	04 c0       	rjmp	.+8      	; 0x1350 <__stack+0xaf1>
    1348:	16 95       	lsr	r17
    134a:	07 95       	ror	r16
    134c:	f7 94       	ror	r15
    134e:	e7 94       	ror	r14
    1350:	8a 95       	dec	r24
    1352:	d2 f7       	brpl	.-12     	; 0x1348 <__stack+0xae9>
    1354:	d8 01       	movw	r26, r16
    1356:	c7 01       	movw	r24, r14
    1358:	ed 84       	ldd	r14, Y+13	; 0x0d
    135a:	fe 84       	ldd	r15, Y+14	; 0x0e
    135c:	0f 85       	ldd	r16, Y+15	; 0x0f
    135e:	18 89       	ldd	r17, Y+16	; 0x10
    1360:	a7 c3       	rjmp	.+1870   	; 0x1ab0 <__stack+0x1251>
    1362:	8f ed       	ldi	r24, 0xDF	; 223
    1364:	82 bb       	out	0x12, r24	; 18
    1366:	80 91 6f 00 	lds	r24, 0x006F
    136a:	90 91 70 00 	lds	r25, 0x0070
    136e:	a0 91 71 00 	lds	r26, 0x0071
    1372:	b0 91 72 00 	lds	r27, 0x0072
    1376:	fc 01       	movw	r30, r24
    1378:	e8 5f       	subi	r30, 0xF8	; 248
    137a:	fe 4f       	sbci	r31, 0xFE	; 254
    137c:	84 91       	lpm	r24, Z+
    137e:	28 2f       	mov	r18, r24
    1380:	30 e0       	ldi	r19, 0x00	; 0
    1382:	40 e0       	ldi	r20, 0x00	; 0
    1384:	50 e0       	ldi	r21, 0x00	; 0
    1386:	80 91 61 00 	lds	r24, 0x0061
    138a:	81 95       	neg	r24
    138c:	68 2f       	mov	r22, r24
    138e:	77 27       	eor	r23, r23
    1390:	67 fd       	sbrc	r22, 7
    1392:	70 95       	com	r23
    1394:	87 fd       	sbrc	r24, 7
    1396:	0e c0       	rjmp	.+28     	; 0x13b4 <__stack+0xb55>
    1398:	da 01       	movw	r26, r20
    139a:	c9 01       	movw	r24, r18
    139c:	04 c0       	rjmp	.+8      	; 0x13a6 <__stack+0xb47>
    139e:	88 0f       	add	r24, r24
    13a0:	99 1f       	adc	r25, r25
    13a2:	aa 1f       	adc	r26, r26
    13a4:	bb 1f       	adc	r27, r27
    13a6:	6a 95       	dec	r22
    13a8:	d2 f7       	brpl	.-12     	; 0x139e <__stack+0xb3f>
    13aa:	89 87       	std	Y+9, r24	; 0x09
    13ac:	9a 87       	std	Y+10, r25	; 0x0a
    13ae:	ab 87       	std	Y+11, r26	; 0x0b
    13b0:	bc 87       	std	Y+12, r27	; 0x0c
    13b2:	11 c0       	rjmp	.+34     	; 0x13d6 <__stack+0xb77>
    13b4:	88 27       	eor	r24, r24
    13b6:	99 27       	eor	r25, r25
    13b8:	86 1b       	sub	r24, r22
    13ba:	97 0b       	sbc	r25, r23
    13bc:	79 01       	movw	r14, r18
    13be:	8a 01       	movw	r16, r20
    13c0:	04 c0       	rjmp	.+8      	; 0x13ca <__stack+0xb6b>
    13c2:	16 95       	lsr	r17
    13c4:	07 95       	ror	r16
    13c6:	f7 94       	ror	r15
    13c8:	e7 94       	ror	r14
    13ca:	8a 95       	dec	r24
    13cc:	d2 f7       	brpl	.-12     	; 0x13c2 <__stack+0xb63>
    13ce:	e9 86       	std	Y+9, r14	; 0x09
    13d0:	fa 86       	std	Y+10, r15	; 0x0a
    13d2:	0b 87       	std	Y+11, r16	; 0x0b
    13d4:	1c 87       	std	Y+12, r17	; 0x0c
    13d6:	80 91 73 00 	lds	r24, 0x0073
    13da:	90 91 74 00 	lds	r25, 0x0074
    13de:	a0 91 75 00 	lds	r26, 0x0075
    13e2:	b0 91 76 00 	lds	r27, 0x0076
    13e6:	fc 01       	movw	r30, r24
    13e8:	e8 5f       	subi	r30, 0xF8	; 248
    13ea:	fe 4f       	sbci	r31, 0xFE	; 254
    13ec:	84 91       	lpm	r24, Z+
    13ee:	28 2f       	mov	r18, r24
    13f0:	30 e0       	ldi	r19, 0x00	; 0
    13f2:	40 e0       	ldi	r20, 0x00	; 0
    13f4:	50 e0       	ldi	r21, 0x00	; 0
    13f6:	90 91 61 00 	lds	r25, 0x0061
    13fa:	86 e0       	ldi	r24, 0x06	; 6
    13fc:	89 1b       	sub	r24, r25
    13fe:	68 2f       	mov	r22, r24
    1400:	77 27       	eor	r23, r23
    1402:	67 fd       	sbrc	r22, 7
    1404:	70 95       	com	r23
    1406:	87 fd       	sbrc	r24, 7
    1408:	08 c0       	rjmp	.+16     	; 0x141a <__stack+0xbbb>
    140a:	04 c0       	rjmp	.+8      	; 0x1414 <__stack+0xbb5>
    140c:	22 0f       	add	r18, r18
    140e:	33 1f       	adc	r19, r19
    1410:	44 1f       	adc	r20, r20
    1412:	55 1f       	adc	r21, r21
    1414:	6a 95       	dec	r22
    1416:	d2 f7       	brpl	.-12     	; 0x140c <__stack+0xbad>
    1418:	0b c0       	rjmp	.+22     	; 0x1430 <__stack+0xbd1>
    141a:	88 27       	eor	r24, r24
    141c:	99 27       	eor	r25, r25
    141e:	86 1b       	sub	r24, r22
    1420:	97 0b       	sbc	r25, r23
    1422:	04 c0       	rjmp	.+8      	; 0x142c <__stack+0xbcd>
    1424:	56 95       	lsr	r21
    1426:	47 95       	ror	r20
    1428:	37 95       	ror	r19
    142a:	27 95       	ror	r18
    142c:	8a 95       	dec	r24
    142e:	d2 f7       	brpl	.-12     	; 0x1424 <__stack+0xbc5>
    1430:	80 91 7b 00 	lds	r24, 0x007B
    1434:	90 91 7c 00 	lds	r25, 0x007C
    1438:	a0 91 7d 00 	lds	r26, 0x007D
    143c:	b0 91 7e 00 	lds	r27, 0x007E
    1440:	fc 01       	movw	r30, r24
    1442:	e8 5f       	subi	r30, 0xF8	; 248
    1444:	fe 4f       	sbci	r31, 0xFE	; 254
    1446:	84 91       	lpm	r24, Z+
    1448:	e8 2e       	mov	r14, r24
    144a:	ff 24       	eor	r15, r15
    144c:	00 e0       	ldi	r16, 0x00	; 0
    144e:	10 e0       	ldi	r17, 0x00	; 0
    1450:	90 91 61 00 	lds	r25, 0x0061
    1454:	8c e0       	ldi	r24, 0x0C	; 12
    1456:	89 1b       	sub	r24, r25
    1458:	68 2f       	mov	r22, r24
    145a:	77 27       	eor	r23, r23
    145c:	67 fd       	sbrc	r22, 7
    145e:	70 95       	com	r23
    1460:	87 fd       	sbrc	r24, 7
    1462:	0a c0       	rjmp	.+20     	; 0x1478 <__stack+0xc19>
    1464:	17 01       	movw	r2, r14
    1466:	28 01       	movw	r4, r16
    1468:	04 c0       	rjmp	.+8      	; 0x1472 <__stack+0xc13>
    146a:	22 0c       	add	r2, r2
    146c:	33 1c       	adc	r3, r3
    146e:	44 1c       	adc	r4, r4
    1470:	55 1c       	adc	r5, r5
    1472:	6a 95       	dec	r22
    1474:	d2 f7       	brpl	.-12     	; 0x146a <__stack+0xc0b>
    1476:	0d c0       	rjmp	.+26     	; 0x1492 <__stack+0xc33>
    1478:	88 27       	eor	r24, r24
    147a:	99 27       	eor	r25, r25
    147c:	86 1b       	sub	r24, r22
    147e:	97 0b       	sbc	r25, r23
    1480:	17 01       	movw	r2, r14
    1482:	28 01       	movw	r4, r16
    1484:	04 c0       	rjmp	.+8      	; 0x148e <__stack+0xc2f>
    1486:	56 94       	lsr	r5
    1488:	47 94       	ror	r4
    148a:	37 94       	ror	r3
    148c:	27 94       	ror	r2
    148e:	8a 95       	dec	r24
    1490:	d2 f7       	brpl	.-12     	; 0x1486 <__stack+0xc27>
    1492:	80 91 7f 00 	lds	r24, 0x007F
    1496:	90 91 80 00 	lds	r25, 0x0080
    149a:	a0 91 81 00 	lds	r26, 0x0081
    149e:	b0 91 82 00 	lds	r27, 0x0082
    14a2:	fc 01       	movw	r30, r24
    14a4:	e8 5f       	subi	r30, 0xF8	; 248
    14a6:	fe 4f       	sbci	r31, 0xFE	; 254
    14a8:	84 91       	lpm	r24, Z+
    14aa:	e8 2e       	mov	r14, r24
    14ac:	ff 24       	eor	r15, r15
    14ae:	00 e0       	ldi	r16, 0x00	; 0
    14b0:	10 e0       	ldi	r17, 0x00	; 0
    14b2:	90 91 61 00 	lds	r25, 0x0061
    14b6:	82 e1       	ldi	r24, 0x12	; 18
    14b8:	89 1b       	sub	r24, r25
    14ba:	68 2f       	mov	r22, r24
    14bc:	77 27       	eor	r23, r23
    14be:	67 fd       	sbrc	r22, 7
    14c0:	70 95       	com	r23
    14c2:	87 fd       	sbrc	r24, 7
    14c4:	0a c0       	rjmp	.+20     	; 0x14da <__stack+0xc7b>
    14c6:	37 01       	movw	r6, r14
    14c8:	48 01       	movw	r8, r16
    14ca:	04 c0       	rjmp	.+8      	; 0x14d4 <__stack+0xc75>
    14cc:	66 0c       	add	r6, r6
    14ce:	77 1c       	adc	r7, r7
    14d0:	88 1c       	adc	r8, r8
    14d2:	99 1c       	adc	r9, r9
    14d4:	6a 95       	dec	r22
    14d6:	d2 f7       	brpl	.-12     	; 0x14cc <__stack+0xc6d>
    14d8:	0d c0       	rjmp	.+26     	; 0x14f4 <__stack+0xc95>
    14da:	88 27       	eor	r24, r24
    14dc:	99 27       	eor	r25, r25
    14de:	86 1b       	sub	r24, r22
    14e0:	97 0b       	sbc	r25, r23
    14e2:	37 01       	movw	r6, r14
    14e4:	48 01       	movw	r8, r16
    14e6:	04 c0       	rjmp	.+8      	; 0x14f0 <__stack+0xc91>
    14e8:	96 94       	lsr	r9
    14ea:	87 94       	ror	r8
    14ec:	77 94       	ror	r7
    14ee:	67 94       	ror	r6
    14f0:	8a 95       	dec	r24
    14f2:	d2 f7       	brpl	.-12     	; 0x14e8 <__stack+0xc89>
    14f4:	80 91 77 00 	lds	r24, 0x0077
    14f8:	90 91 78 00 	lds	r25, 0x0078
    14fc:	a0 91 79 00 	lds	r26, 0x0079
    1500:	b0 91 7a 00 	lds	r27, 0x007A
    1504:	fc 01       	movw	r30, r24
    1506:	e8 5f       	subi	r30, 0xF8	; 248
    1508:	fe 4f       	sbci	r31, 0xFE	; 254
    150a:	84 91       	lpm	r24, Z+
    150c:	e8 2e       	mov	r14, r24
    150e:	ff 24       	eor	r15, r15
    1510:	00 e0       	ldi	r16, 0x00	; 0
    1512:	10 e0       	ldi	r17, 0x00	; 0
    1514:	90 91 61 00 	lds	r25, 0x0061
    1518:	88 e1       	ldi	r24, 0x18	; 24
    151a:	89 1b       	sub	r24, r25
    151c:	68 2f       	mov	r22, r24
    151e:	77 27       	eor	r23, r23
    1520:	67 fd       	sbrc	r22, 7
    1522:	70 95       	com	r23
    1524:	87 fd       	sbrc	r24, 7
    1526:	0a c0       	rjmp	.+20     	; 0x153c <__stack+0xcdd>
    1528:	57 01       	movw	r10, r14
    152a:	68 01       	movw	r12, r16
    152c:	04 c0       	rjmp	.+8      	; 0x1536 <__stack+0xcd7>
    152e:	aa 0c       	add	r10, r10
    1530:	bb 1c       	adc	r11, r11
    1532:	cc 1c       	adc	r12, r12
    1534:	dd 1c       	adc	r13, r13
    1536:	6a 95       	dec	r22
    1538:	d2 f7       	brpl	.-12     	; 0x152e <__stack+0xccf>
    153a:	0d c0       	rjmp	.+26     	; 0x1556 <__stack+0xcf7>
    153c:	88 27       	eor	r24, r24
    153e:	99 27       	eor	r25, r25
    1540:	86 1b       	sub	r24, r22
    1542:	97 0b       	sbc	r25, r23
    1544:	57 01       	movw	r10, r14
    1546:	68 01       	movw	r12, r16
    1548:	04 c0       	rjmp	.+8      	; 0x1552 <__stack+0xcf3>
    154a:	d6 94       	lsr	r13
    154c:	c7 94       	ror	r12
    154e:	b7 94       	ror	r11
    1550:	a7 94       	ror	r10
    1552:	8a 95       	dec	r24
    1554:	d2 f7       	brpl	.-12     	; 0x154a <__stack+0xceb>
    1556:	80 91 67 00 	lds	r24, 0x0067
    155a:	90 91 68 00 	lds	r25, 0x0068
    155e:	a0 91 69 00 	lds	r26, 0x0069
    1562:	b0 91 6a 00 	lds	r27, 0x006A
    1566:	fc 01       	movw	r30, r24
    1568:	e8 5f       	subi	r30, 0xF8	; 248
    156a:	fe 4f       	sbci	r31, 0xFE	; 254
    156c:	84 91       	lpm	r24, Z+
    156e:	e8 2e       	mov	r14, r24
    1570:	ff 24       	eor	r15, r15
    1572:	00 e0       	ldi	r16, 0x00	; 0
    1574:	10 e0       	ldi	r17, 0x00	; 0
    1576:	e9 a2       	std	Y+33, r14	; 0x21
    1578:	fa a2       	std	Y+34, r15	; 0x22
    157a:	0b a3       	std	Y+35, r16	; 0x23
    157c:	1c a3       	std	Y+36, r17	; 0x24
    157e:	90 91 61 00 	lds	r25, 0x0061
    1582:	8e e1       	ldi	r24, 0x1E	; 30
    1584:	89 1b       	sub	r24, r25
    1586:	68 2f       	mov	r22, r24
    1588:	77 27       	eor	r23, r23
    158a:	67 fd       	sbrc	r22, 7
    158c:	70 95       	com	r23
    158e:	87 fd       	sbrc	r24, 7
    1590:	0a c0       	rjmp	.+20     	; 0x15a6 <__stack+0xd47>
    1592:	d8 01       	movw	r26, r16
    1594:	c7 01       	movw	r24, r14
    1596:	04 c0       	rjmp	.+8      	; 0x15a0 <__stack+0xd41>
    1598:	88 0f       	add	r24, r24
    159a:	99 1f       	adc	r25, r25
    159c:	aa 1f       	adc	r26, r26
    159e:	bb 1f       	adc	r27, r27
    15a0:	6a 95       	dec	r22
    15a2:	d2 f7       	brpl	.-12     	; 0x1598 <__stack+0xd39>
    15a4:	11 c0       	rjmp	.+34     	; 0x15c8 <__stack+0xd69>
    15a6:	88 27       	eor	r24, r24
    15a8:	99 27       	eor	r25, r25
    15aa:	86 1b       	sub	r24, r22
    15ac:	97 0b       	sbc	r25, r23
    15ae:	e9 a0       	ldd	r14, Y+33	; 0x21
    15b0:	fa a0       	ldd	r15, Y+34	; 0x22
    15b2:	0b a1       	ldd	r16, Y+35	; 0x23
    15b4:	1c a1       	ldd	r17, Y+36	; 0x24
    15b6:	04 c0       	rjmp	.+8      	; 0x15c0 <__stack+0xd61>
    15b8:	16 95       	lsr	r17
    15ba:	07 95       	ror	r16
    15bc:	f7 94       	ror	r15
    15be:	e7 94       	ror	r14
    15c0:	8a 95       	dec	r24
    15c2:	d2 f7       	brpl	.-12     	; 0x15b8 <__stack+0xd59>
    15c4:	d8 01       	movw	r26, r16
    15c6:	c7 01       	movw	r24, r14
    15c8:	e9 84       	ldd	r14, Y+9	; 0x09
    15ca:	fa 84       	ldd	r15, Y+10	; 0x0a
    15cc:	0b 85       	ldd	r16, Y+11	; 0x0b
    15ce:	1c 85       	ldd	r17, Y+12	; 0x0c
    15d0:	6f c2       	rjmp	.+1246   	; 0x1ab0 <__stack+0x1251>
    15d2:	8f eb       	ldi	r24, 0xBF	; 191
    15d4:	82 bb       	out	0x12, r24	; 18
    15d6:	80 91 6f 00 	lds	r24, 0x006F
    15da:	90 91 70 00 	lds	r25, 0x0070
    15de:	a0 91 71 00 	lds	r26, 0x0071
    15e2:	b0 91 72 00 	lds	r27, 0x0072
    15e6:	fc 01       	movw	r30, r24
    15e8:	e4 5d       	subi	r30, 0xD4	; 212
    15ea:	fe 4f       	sbci	r31, 0xFE	; 254
    15ec:	84 91       	lpm	r24, Z+
    15ee:	28 2f       	mov	r18, r24
    15f0:	30 e0       	ldi	r19, 0x00	; 0
    15f2:	40 e0       	ldi	r20, 0x00	; 0
    15f4:	50 e0       	ldi	r21, 0x00	; 0
    15f6:	80 91 61 00 	lds	r24, 0x0061
    15fa:	81 95       	neg	r24
    15fc:	68 2f       	mov	r22, r24
    15fe:	77 27       	eor	r23, r23
    1600:	67 fd       	sbrc	r22, 7
    1602:	70 95       	com	r23
    1604:	87 fd       	sbrc	r24, 7
    1606:	0e c0       	rjmp	.+28     	; 0x1624 <__stack+0xdc5>
    1608:	da 01       	movw	r26, r20
    160a:	c9 01       	movw	r24, r18
    160c:	04 c0       	rjmp	.+8      	; 0x1616 <__stack+0xdb7>
    160e:	88 0f       	add	r24, r24
    1610:	99 1f       	adc	r25, r25
    1612:	aa 1f       	adc	r26, r26
    1614:	bb 1f       	adc	r27, r27
    1616:	6a 95       	dec	r22
    1618:	d2 f7       	brpl	.-12     	; 0x160e <__stack+0xdaf>
    161a:	8d 83       	std	Y+5, r24	; 0x05
    161c:	9e 83       	std	Y+6, r25	; 0x06
    161e:	af 83       	std	Y+7, r26	; 0x07
    1620:	b8 87       	std	Y+8, r27	; 0x08
    1622:	11 c0       	rjmp	.+34     	; 0x1646 <__stack+0xde7>
    1624:	88 27       	eor	r24, r24
    1626:	99 27       	eor	r25, r25
    1628:	86 1b       	sub	r24, r22
    162a:	97 0b       	sbc	r25, r23
    162c:	79 01       	movw	r14, r18
    162e:	8a 01       	movw	r16, r20
    1630:	04 c0       	rjmp	.+8      	; 0x163a <__stack+0xddb>
    1632:	16 95       	lsr	r17
    1634:	07 95       	ror	r16
    1636:	f7 94       	ror	r15
    1638:	e7 94       	ror	r14
    163a:	8a 95       	dec	r24
    163c:	d2 f7       	brpl	.-12     	; 0x1632 <__stack+0xdd3>
    163e:	ed 82       	std	Y+5, r14	; 0x05
    1640:	fe 82       	std	Y+6, r15	; 0x06
    1642:	0f 83       	std	Y+7, r16	; 0x07
    1644:	18 87       	std	Y+8, r17	; 0x08
    1646:	80 91 73 00 	lds	r24, 0x0073
    164a:	90 91 74 00 	lds	r25, 0x0074
    164e:	a0 91 75 00 	lds	r26, 0x0075
    1652:	b0 91 76 00 	lds	r27, 0x0076
    1656:	fc 01       	movw	r30, r24
    1658:	e4 5d       	subi	r30, 0xD4	; 212
    165a:	fe 4f       	sbci	r31, 0xFE	; 254
    165c:	84 91       	lpm	r24, Z+
    165e:	28 2f       	mov	r18, r24
    1660:	30 e0       	ldi	r19, 0x00	; 0
    1662:	40 e0       	ldi	r20, 0x00	; 0
    1664:	50 e0       	ldi	r21, 0x00	; 0
    1666:	90 91 61 00 	lds	r25, 0x0061
    166a:	86 e0       	ldi	r24, 0x06	; 6
    166c:	89 1b       	sub	r24, r25
    166e:	68 2f       	mov	r22, r24
    1670:	77 27       	eor	r23, r23
    1672:	67 fd       	sbrc	r22, 7
    1674:	70 95       	com	r23
    1676:	87 fd       	sbrc	r24, 7
    1678:	08 c0       	rjmp	.+16     	; 0x168a <__stack+0xe2b>
    167a:	04 c0       	rjmp	.+8      	; 0x1684 <__stack+0xe25>
    167c:	22 0f       	add	r18, r18
    167e:	33 1f       	adc	r19, r19
    1680:	44 1f       	adc	r20, r20
    1682:	55 1f       	adc	r21, r21
    1684:	6a 95       	dec	r22
    1686:	d2 f7       	brpl	.-12     	; 0x167c <__stack+0xe1d>
    1688:	0b c0       	rjmp	.+22     	; 0x16a0 <__stack+0xe41>
    168a:	88 27       	eor	r24, r24
    168c:	99 27       	eor	r25, r25
    168e:	86 1b       	sub	r24, r22
    1690:	97 0b       	sbc	r25, r23
    1692:	04 c0       	rjmp	.+8      	; 0x169c <__stack+0xe3d>
    1694:	56 95       	lsr	r21
    1696:	47 95       	ror	r20
    1698:	37 95       	ror	r19
    169a:	27 95       	ror	r18
    169c:	8a 95       	dec	r24
    169e:	d2 f7       	brpl	.-12     	; 0x1694 <__stack+0xe35>
    16a0:	80 91 7b 00 	lds	r24, 0x007B
    16a4:	90 91 7c 00 	lds	r25, 0x007C
    16a8:	a0 91 7d 00 	lds	r26, 0x007D
    16ac:	b0 91 7e 00 	lds	r27, 0x007E
    16b0:	fc 01       	movw	r30, r24
    16b2:	e4 5d       	subi	r30, 0xD4	; 212
    16b4:	fe 4f       	sbci	r31, 0xFE	; 254
    16b6:	84 91       	lpm	r24, Z+
    16b8:	e8 2e       	mov	r14, r24
    16ba:	ff 24       	eor	r15, r15
    16bc:	00 e0       	ldi	r16, 0x00	; 0
    16be:	10 e0       	ldi	r17, 0x00	; 0
    16c0:	90 91 61 00 	lds	r25, 0x0061
    16c4:	8c e0       	ldi	r24, 0x0C	; 12
    16c6:	89 1b       	sub	r24, r25
    16c8:	68 2f       	mov	r22, r24
    16ca:	77 27       	eor	r23, r23
    16cc:	67 fd       	sbrc	r22, 7
    16ce:	70 95       	com	r23
    16d0:	87 fd       	sbrc	r24, 7
    16d2:	0a c0       	rjmp	.+20     	; 0x16e8 <__stack+0xe89>
    16d4:	17 01       	movw	r2, r14
    16d6:	28 01       	movw	r4, r16
    16d8:	04 c0       	rjmp	.+8      	; 0x16e2 <__stack+0xe83>
    16da:	22 0c       	add	r2, r2
    16dc:	33 1c       	adc	r3, r3
    16de:	44 1c       	adc	r4, r4
    16e0:	55 1c       	adc	r5, r5
    16e2:	6a 95       	dec	r22
    16e4:	d2 f7       	brpl	.-12     	; 0x16da <__stack+0xe7b>
    16e6:	0d c0       	rjmp	.+26     	; 0x1702 <__stack+0xea3>
    16e8:	88 27       	eor	r24, r24
    16ea:	99 27       	eor	r25, r25
    16ec:	86 1b       	sub	r24, r22
    16ee:	97 0b       	sbc	r25, r23
    16f0:	17 01       	movw	r2, r14
    16f2:	28 01       	movw	r4, r16
    16f4:	04 c0       	rjmp	.+8      	; 0x16fe <__stack+0xe9f>
    16f6:	56 94       	lsr	r5
    16f8:	47 94       	ror	r4
    16fa:	37 94       	ror	r3
    16fc:	27 94       	ror	r2
    16fe:	8a 95       	dec	r24
    1700:	d2 f7       	brpl	.-12     	; 0x16f6 <__stack+0xe97>
    1702:	80 91 7f 00 	lds	r24, 0x007F
    1706:	90 91 80 00 	lds	r25, 0x0080
    170a:	a0 91 81 00 	lds	r26, 0x0081
    170e:	b0 91 82 00 	lds	r27, 0x0082
    1712:	fc 01       	movw	r30, r24
    1714:	e4 5d       	subi	r30, 0xD4	; 212
    1716:	fe 4f       	sbci	r31, 0xFE	; 254
    1718:	84 91       	lpm	r24, Z+
    171a:	e8 2e       	mov	r14, r24
    171c:	ff 24       	eor	r15, r15
    171e:	00 e0       	ldi	r16, 0x00	; 0
    1720:	10 e0       	ldi	r17, 0x00	; 0
    1722:	90 91 61 00 	lds	r25, 0x0061
    1726:	82 e1       	ldi	r24, 0x12	; 18
    1728:	89 1b       	sub	r24, r25
    172a:	68 2f       	mov	r22, r24
    172c:	77 27       	eor	r23, r23
    172e:	67 fd       	sbrc	r22, 7
    1730:	70 95       	com	r23
    1732:	87 fd       	sbrc	r24, 7
    1734:	0a c0       	rjmp	.+20     	; 0x174a <__stack+0xeeb>
    1736:	37 01       	movw	r6, r14
    1738:	48 01       	movw	r8, r16
    173a:	04 c0       	rjmp	.+8      	; 0x1744 <__stack+0xee5>
    173c:	66 0c       	add	r6, r6
    173e:	77 1c       	adc	r7, r7
    1740:	88 1c       	adc	r8, r8
    1742:	99 1c       	adc	r9, r9
    1744:	6a 95       	dec	r22
    1746:	d2 f7       	brpl	.-12     	; 0x173c <__stack+0xedd>
    1748:	0d c0       	rjmp	.+26     	; 0x1764 <__stack+0xf05>
    174a:	88 27       	eor	r24, r24
    174c:	99 27       	eor	r25, r25
    174e:	86 1b       	sub	r24, r22
    1750:	97 0b       	sbc	r25, r23
    1752:	37 01       	movw	r6, r14
    1754:	48 01       	movw	r8, r16
    1756:	04 c0       	rjmp	.+8      	; 0x1760 <__stack+0xf01>
    1758:	96 94       	lsr	r9
    175a:	87 94       	ror	r8
    175c:	77 94       	ror	r7
    175e:	67 94       	ror	r6
    1760:	8a 95       	dec	r24
    1762:	d2 f7       	brpl	.-12     	; 0x1758 <__stack+0xef9>
    1764:	80 91 77 00 	lds	r24, 0x0077
    1768:	90 91 78 00 	lds	r25, 0x0078
    176c:	a0 91 79 00 	lds	r26, 0x0079
    1770:	b0 91 7a 00 	lds	r27, 0x007A
    1774:	fc 01       	movw	r30, r24
    1776:	e4 5d       	subi	r30, 0xD4	; 212
    1778:	fe 4f       	sbci	r31, 0xFE	; 254
    177a:	84 91       	lpm	r24, Z+
    177c:	e8 2e       	mov	r14, r24
    177e:	ff 24       	eor	r15, r15
    1780:	00 e0       	ldi	r16, 0x00	; 0
    1782:	10 e0       	ldi	r17, 0x00	; 0
    1784:	90 91 61 00 	lds	r25, 0x0061
    1788:	88 e1       	ldi	r24, 0x18	; 24
    178a:	89 1b       	sub	r24, r25
    178c:	68 2f       	mov	r22, r24
    178e:	77 27       	eor	r23, r23
    1790:	67 fd       	sbrc	r22, 7
    1792:	70 95       	com	r23
    1794:	87 fd       	sbrc	r24, 7
    1796:	0a c0       	rjmp	.+20     	; 0x17ac <__stack+0xf4d>
    1798:	57 01       	movw	r10, r14
    179a:	68 01       	movw	r12, r16
    179c:	04 c0       	rjmp	.+8      	; 0x17a6 <__stack+0xf47>
    179e:	aa 0c       	add	r10, r10
    17a0:	bb 1c       	adc	r11, r11
    17a2:	cc 1c       	adc	r12, r12
    17a4:	dd 1c       	adc	r13, r13
    17a6:	6a 95       	dec	r22
    17a8:	d2 f7       	brpl	.-12     	; 0x179e <__stack+0xf3f>
    17aa:	0d c0       	rjmp	.+26     	; 0x17c6 <__stack+0xf67>
    17ac:	88 27       	eor	r24, r24
    17ae:	99 27       	eor	r25, r25
    17b0:	86 1b       	sub	r24, r22
    17b2:	97 0b       	sbc	r25, r23
    17b4:	57 01       	movw	r10, r14
    17b6:	68 01       	movw	r12, r16
    17b8:	04 c0       	rjmp	.+8      	; 0x17c2 <__stack+0xf63>
    17ba:	d6 94       	lsr	r13
    17bc:	c7 94       	ror	r12
    17be:	b7 94       	ror	r11
    17c0:	a7 94       	ror	r10
    17c2:	8a 95       	dec	r24
    17c4:	d2 f7       	brpl	.-12     	; 0x17ba <__stack+0xf5b>
    17c6:	80 91 67 00 	lds	r24, 0x0067
    17ca:	90 91 68 00 	lds	r25, 0x0068
    17ce:	a0 91 69 00 	lds	r26, 0x0069
    17d2:	b0 91 6a 00 	lds	r27, 0x006A
    17d6:	fc 01       	movw	r30, r24
    17d8:	e4 5d       	subi	r30, 0xD4	; 212
    17da:	fe 4f       	sbci	r31, 0xFE	; 254
    17dc:	84 91       	lpm	r24, Z+
    17de:	e8 2e       	mov	r14, r24
    17e0:	ff 24       	eor	r15, r15
    17e2:	00 e0       	ldi	r16, 0x00	; 0
    17e4:	10 e0       	ldi	r17, 0x00	; 0
    17e6:	e9 a2       	std	Y+33, r14	; 0x21
    17e8:	fa a2       	std	Y+34, r15	; 0x22
    17ea:	0b a3       	std	Y+35, r16	; 0x23
    17ec:	1c a3       	std	Y+36, r17	; 0x24
    17ee:	90 91 61 00 	lds	r25, 0x0061
    17f2:	8e e1       	ldi	r24, 0x1E	; 30
    17f4:	89 1b       	sub	r24, r25
    17f6:	68 2f       	mov	r22, r24
    17f8:	77 27       	eor	r23, r23
    17fa:	67 fd       	sbrc	r22, 7
    17fc:	70 95       	com	r23
    17fe:	87 fd       	sbrc	r24, 7
    1800:	0a c0       	rjmp	.+20     	; 0x1816 <__stack+0xfb7>
    1802:	d8 01       	movw	r26, r16
    1804:	c7 01       	movw	r24, r14
    1806:	04 c0       	rjmp	.+8      	; 0x1810 <__stack+0xfb1>
    1808:	88 0f       	add	r24, r24
    180a:	99 1f       	adc	r25, r25
    180c:	aa 1f       	adc	r26, r26
    180e:	bb 1f       	adc	r27, r27
    1810:	6a 95       	dec	r22
    1812:	d2 f7       	brpl	.-12     	; 0x1808 <__stack+0xfa9>
    1814:	11 c0       	rjmp	.+34     	; 0x1838 <__stack+0xfd9>
    1816:	88 27       	eor	r24, r24
    1818:	99 27       	eor	r25, r25
    181a:	86 1b       	sub	r24, r22
    181c:	97 0b       	sbc	r25, r23
    181e:	e9 a0       	ldd	r14, Y+33	; 0x21
    1820:	fa a0       	ldd	r15, Y+34	; 0x22
    1822:	0b a1       	ldd	r16, Y+35	; 0x23
    1824:	1c a1       	ldd	r17, Y+36	; 0x24
    1826:	04 c0       	rjmp	.+8      	; 0x1830 <__stack+0xfd1>
    1828:	16 95       	lsr	r17
    182a:	07 95       	ror	r16
    182c:	f7 94       	ror	r15
    182e:	e7 94       	ror	r14
    1830:	8a 95       	dec	r24
    1832:	d2 f7       	brpl	.-12     	; 0x1828 <__stack+0xfc9>
    1834:	d8 01       	movw	r26, r16
    1836:	c7 01       	movw	r24, r14
    1838:	ed 80       	ldd	r14, Y+5	; 0x05
    183a:	fe 80       	ldd	r15, Y+6	; 0x06
    183c:	0f 81       	ldd	r16, Y+7	; 0x07
    183e:	18 85       	ldd	r17, Y+8	; 0x08
    1840:	37 c1       	rjmp	.+622    	; 0x1ab0 <__stack+0x1251>
    1842:	8f e7       	ldi	r24, 0x7F	; 127
    1844:	82 bb       	out	0x12, r24	; 18
    1846:	80 91 6f 00 	lds	r24, 0x006F
    184a:	90 91 70 00 	lds	r25, 0x0070
    184e:	a0 91 71 00 	lds	r26, 0x0071
    1852:	b0 91 72 00 	lds	r27, 0x0072
    1856:	fc 01       	movw	r30, r24
    1858:	e0 5b       	subi	r30, 0xB0	; 176
    185a:	fe 4f       	sbci	r31, 0xFE	; 254
    185c:	84 91       	lpm	r24, Z+
    185e:	28 2f       	mov	r18, r24
    1860:	30 e0       	ldi	r19, 0x00	; 0
    1862:	40 e0       	ldi	r20, 0x00	; 0
    1864:	50 e0       	ldi	r21, 0x00	; 0
    1866:	80 91 61 00 	lds	r24, 0x0061
    186a:	81 95       	neg	r24
    186c:	68 2f       	mov	r22, r24
    186e:	77 27       	eor	r23, r23
    1870:	67 fd       	sbrc	r22, 7
    1872:	70 95       	com	r23
    1874:	87 fd       	sbrc	r24, 7
    1876:	0e c0       	rjmp	.+28     	; 0x1894 <__stack+0x1035>
    1878:	da 01       	movw	r26, r20
    187a:	c9 01       	movw	r24, r18
    187c:	04 c0       	rjmp	.+8      	; 0x1886 <__stack+0x1027>
    187e:	88 0f       	add	r24, r24
    1880:	99 1f       	adc	r25, r25
    1882:	aa 1f       	adc	r26, r26
    1884:	bb 1f       	adc	r27, r27
    1886:	6a 95       	dec	r22
    1888:	d2 f7       	brpl	.-12     	; 0x187e <__stack+0x101f>
    188a:	89 83       	std	Y+1, r24	; 0x01
    188c:	9a 83       	std	Y+2, r25	; 0x02
    188e:	ab 83       	std	Y+3, r26	; 0x03
    1890:	bc 83       	std	Y+4, r27	; 0x04
    1892:	11 c0       	rjmp	.+34     	; 0x18b6 <__stack+0x1057>
    1894:	88 27       	eor	r24, r24
    1896:	99 27       	eor	r25, r25
    1898:	86 1b       	sub	r24, r22
    189a:	97 0b       	sbc	r25, r23
    189c:	79 01       	movw	r14, r18
    189e:	8a 01       	movw	r16, r20
    18a0:	04 c0       	rjmp	.+8      	; 0x18aa <__stack+0x104b>
    18a2:	16 95       	lsr	r17
    18a4:	07 95       	ror	r16
    18a6:	f7 94       	ror	r15
    18a8:	e7 94       	ror	r14
    18aa:	8a 95       	dec	r24
    18ac:	d2 f7       	brpl	.-12     	; 0x18a2 <__stack+0x1043>
    18ae:	e9 82       	std	Y+1, r14	; 0x01
    18b0:	fa 82       	std	Y+2, r15	; 0x02
    18b2:	0b 83       	std	Y+3, r16	; 0x03
    18b4:	1c 83       	std	Y+4, r17	; 0x04
    18b6:	80 91 73 00 	lds	r24, 0x0073
    18ba:	90 91 74 00 	lds	r25, 0x0074
    18be:	a0 91 75 00 	lds	r26, 0x0075
    18c2:	b0 91 76 00 	lds	r27, 0x0076
    18c6:	fc 01       	movw	r30, r24
    18c8:	e0 5b       	subi	r30, 0xB0	; 176
    18ca:	fe 4f       	sbci	r31, 0xFE	; 254
    18cc:	84 91       	lpm	r24, Z+
    18ce:	28 2f       	mov	r18, r24
    18d0:	30 e0       	ldi	r19, 0x00	; 0
    18d2:	40 e0       	ldi	r20, 0x00	; 0
    18d4:	50 e0       	ldi	r21, 0x00	; 0
    18d6:	90 91 61 00 	lds	r25, 0x0061
    18da:	86 e0       	ldi	r24, 0x06	; 6
    18dc:	89 1b       	sub	r24, r25
    18de:	68 2f       	mov	r22, r24
    18e0:	77 27       	eor	r23, r23
    18e2:	67 fd       	sbrc	r22, 7
    18e4:	70 95       	com	r23
    18e6:	87 fd       	sbrc	r24, 7
    18e8:	08 c0       	rjmp	.+16     	; 0x18fa <__stack+0x109b>
    18ea:	04 c0       	rjmp	.+8      	; 0x18f4 <__stack+0x1095>
    18ec:	22 0f       	add	r18, r18
    18ee:	33 1f       	adc	r19, r19
    18f0:	44 1f       	adc	r20, r20
    18f2:	55 1f       	adc	r21, r21
    18f4:	6a 95       	dec	r22
    18f6:	d2 f7       	brpl	.-12     	; 0x18ec <__stack+0x108d>
    18f8:	0b c0       	rjmp	.+22     	; 0x1910 <__stack+0x10b1>
    18fa:	88 27       	eor	r24, r24
    18fc:	99 27       	eor	r25, r25
    18fe:	86 1b       	sub	r24, r22
    1900:	97 0b       	sbc	r25, r23
    1902:	04 c0       	rjmp	.+8      	; 0x190c <__stack+0x10ad>
    1904:	56 95       	lsr	r21
    1906:	47 95       	ror	r20
    1908:	37 95       	ror	r19
    190a:	27 95       	ror	r18
    190c:	8a 95       	dec	r24
    190e:	d2 f7       	brpl	.-12     	; 0x1904 <__stack+0x10a5>
    1910:	80 91 7b 00 	lds	r24, 0x007B
    1914:	90 91 7c 00 	lds	r25, 0x007C
    1918:	a0 91 7d 00 	lds	r26, 0x007D
    191c:	b0 91 7e 00 	lds	r27, 0x007E
    1920:	fc 01       	movw	r30, r24
    1922:	e0 5b       	subi	r30, 0xB0	; 176
    1924:	fe 4f       	sbci	r31, 0xFE	; 254
    1926:	84 91       	lpm	r24, Z+
    1928:	e8 2e       	mov	r14, r24
    192a:	ff 24       	eor	r15, r15
    192c:	00 e0       	ldi	r16, 0x00	; 0
    192e:	10 e0       	ldi	r17, 0x00	; 0
    1930:	90 91 61 00 	lds	r25, 0x0061
    1934:	8c e0       	ldi	r24, 0x0C	; 12
    1936:	89 1b       	sub	r24, r25
    1938:	68 2f       	mov	r22, r24
    193a:	77 27       	eor	r23, r23
    193c:	67 fd       	sbrc	r22, 7
    193e:	70 95       	com	r23
    1940:	87 fd       	sbrc	r24, 7
    1942:	0a c0       	rjmp	.+20     	; 0x1958 <__stack+0x10f9>
    1944:	17 01       	movw	r2, r14
    1946:	28 01       	movw	r4, r16
    1948:	04 c0       	rjmp	.+8      	; 0x1952 <__stack+0x10f3>
    194a:	22 0c       	add	r2, r2
    194c:	33 1c       	adc	r3, r3
    194e:	44 1c       	adc	r4, r4
    1950:	55 1c       	adc	r5, r5
    1952:	6a 95       	dec	r22
    1954:	d2 f7       	brpl	.-12     	; 0x194a <__stack+0x10eb>
    1956:	0d c0       	rjmp	.+26     	; 0x1972 <__stack+0x1113>
    1958:	88 27       	eor	r24, r24
    195a:	99 27       	eor	r25, r25
    195c:	86 1b       	sub	r24, r22
    195e:	97 0b       	sbc	r25, r23
    1960:	17 01       	movw	r2, r14
    1962:	28 01       	movw	r4, r16
    1964:	04 c0       	rjmp	.+8      	; 0x196e <__stack+0x110f>
    1966:	56 94       	lsr	r5
    1968:	47 94       	ror	r4
    196a:	37 94       	ror	r3
    196c:	27 94       	ror	r2
    196e:	8a 95       	dec	r24
    1970:	d2 f7       	brpl	.-12     	; 0x1966 <__stack+0x1107>
    1972:	80 91 7f 00 	lds	r24, 0x007F
    1976:	90 91 80 00 	lds	r25, 0x0080
    197a:	a0 91 81 00 	lds	r26, 0x0081
    197e:	b0 91 82 00 	lds	r27, 0x0082
    1982:	fc 01       	movw	r30, r24
    1984:	e0 5b       	subi	r30, 0xB0	; 176
    1986:	fe 4f       	sbci	r31, 0xFE	; 254
    1988:	84 91       	lpm	r24, Z+
    198a:	e8 2e       	mov	r14, r24
    198c:	ff 24       	eor	r15, r15
    198e:	00 e0       	ldi	r16, 0x00	; 0
    1990:	10 e0       	ldi	r17, 0x00	; 0
    1992:	90 91 61 00 	lds	r25, 0x0061
    1996:	82 e1       	ldi	r24, 0x12	; 18
    1998:	89 1b       	sub	r24, r25
    199a:	68 2f       	mov	r22, r24
    199c:	77 27       	eor	r23, r23
    199e:	67 fd       	sbrc	r22, 7
    19a0:	70 95       	com	r23
    19a2:	87 fd       	sbrc	r24, 7
    19a4:	0a c0       	rjmp	.+20     	; 0x19ba <__stack+0x115b>
    19a6:	37 01       	movw	r6, r14
    19a8:	48 01       	movw	r8, r16
    19aa:	04 c0       	rjmp	.+8      	; 0x19b4 <__stack+0x1155>
    19ac:	66 0c       	add	r6, r6
    19ae:	77 1c       	adc	r7, r7
    19b0:	88 1c       	adc	r8, r8
    19b2:	99 1c       	adc	r9, r9
    19b4:	6a 95       	dec	r22
    19b6:	d2 f7       	brpl	.-12     	; 0x19ac <__stack+0x114d>
    19b8:	0d c0       	rjmp	.+26     	; 0x19d4 <__stack+0x1175>
    19ba:	88 27       	eor	r24, r24
    19bc:	99 27       	eor	r25, r25
    19be:	86 1b       	sub	r24, r22
    19c0:	97 0b       	sbc	r25, r23
    19c2:	37 01       	movw	r6, r14
    19c4:	48 01       	movw	r8, r16
    19c6:	04 c0       	rjmp	.+8      	; 0x19d0 <__stack+0x1171>
    19c8:	96 94       	lsr	r9
    19ca:	87 94       	ror	r8
    19cc:	77 94       	ror	r7
    19ce:	67 94       	ror	r6
    19d0:	8a 95       	dec	r24
    19d2:	d2 f7       	brpl	.-12     	; 0x19c8 <__stack+0x1169>
    19d4:	80 91 77 00 	lds	r24, 0x0077
    19d8:	90 91 78 00 	lds	r25, 0x0078
    19dc:	a0 91 79 00 	lds	r26, 0x0079
    19e0:	b0 91 7a 00 	lds	r27, 0x007A
    19e4:	fc 01       	movw	r30, r24
    19e6:	e0 5b       	subi	r30, 0xB0	; 176
    19e8:	fe 4f       	sbci	r31, 0xFE	; 254
    19ea:	84 91       	lpm	r24, Z+
    19ec:	e8 2e       	mov	r14, r24
    19ee:	ff 24       	eor	r15, r15
    19f0:	00 e0       	ldi	r16, 0x00	; 0
    19f2:	10 e0       	ldi	r17, 0x00	; 0
    19f4:	90 91 61 00 	lds	r25, 0x0061
    19f8:	88 e1       	ldi	r24, 0x18	; 24
    19fa:	89 1b       	sub	r24, r25
    19fc:	68 2f       	mov	r22, r24
    19fe:	77 27       	eor	r23, r23
    1a00:	67 fd       	sbrc	r22, 7
    1a02:	70 95       	com	r23
    1a04:	87 fd       	sbrc	r24, 7
    1a06:	0a c0       	rjmp	.+20     	; 0x1a1c <__stack+0x11bd>
    1a08:	57 01       	movw	r10, r14
    1a0a:	68 01       	movw	r12, r16
    1a0c:	04 c0       	rjmp	.+8      	; 0x1a16 <__stack+0x11b7>
    1a0e:	aa 0c       	add	r10, r10
    1a10:	bb 1c       	adc	r11, r11
    1a12:	cc 1c       	adc	r12, r12
    1a14:	dd 1c       	adc	r13, r13
    1a16:	6a 95       	dec	r22
    1a18:	d2 f7       	brpl	.-12     	; 0x1a0e <__stack+0x11af>
    1a1a:	0d c0       	rjmp	.+26     	; 0x1a36 <__stack+0x11d7>
    1a1c:	88 27       	eor	r24, r24
    1a1e:	99 27       	eor	r25, r25
    1a20:	86 1b       	sub	r24, r22
    1a22:	97 0b       	sbc	r25, r23
    1a24:	57 01       	movw	r10, r14
    1a26:	68 01       	movw	r12, r16
    1a28:	04 c0       	rjmp	.+8      	; 0x1a32 <__stack+0x11d3>
    1a2a:	d6 94       	lsr	r13
    1a2c:	c7 94       	ror	r12
    1a2e:	b7 94       	ror	r11
    1a30:	a7 94       	ror	r10
    1a32:	8a 95       	dec	r24
    1a34:	d2 f7       	brpl	.-12     	; 0x1a2a <__stack+0x11cb>
    1a36:	80 91 67 00 	lds	r24, 0x0067
    1a3a:	90 91 68 00 	lds	r25, 0x0068
    1a3e:	a0 91 69 00 	lds	r26, 0x0069
    1a42:	b0 91 6a 00 	lds	r27, 0x006A
    1a46:	fc 01       	movw	r30, r24
    1a48:	e0 5b       	subi	r30, 0xB0	; 176
    1a4a:	fe 4f       	sbci	r31, 0xFE	; 254
    1a4c:	84 91       	lpm	r24, Z+
    1a4e:	e8 2e       	mov	r14, r24
    1a50:	ff 24       	eor	r15, r15
    1a52:	00 e0       	ldi	r16, 0x00	; 0
    1a54:	10 e0       	ldi	r17, 0x00	; 0
    1a56:	e9 a2       	std	Y+33, r14	; 0x21
    1a58:	fa a2       	std	Y+34, r15	; 0x22
    1a5a:	0b a3       	std	Y+35, r16	; 0x23
    1a5c:	1c a3       	std	Y+36, r17	; 0x24
    1a5e:	90 91 61 00 	lds	r25, 0x0061
    1a62:	8e e1       	ldi	r24, 0x1E	; 30
    1a64:	89 1b       	sub	r24, r25
    1a66:	68 2f       	mov	r22, r24
    1a68:	77 27       	eor	r23, r23
    1a6a:	67 fd       	sbrc	r22, 7
    1a6c:	70 95       	com	r23
    1a6e:	87 fd       	sbrc	r24, 7
    1a70:	0a c0       	rjmp	.+20     	; 0x1a86 <__stack+0x1227>
    1a72:	d8 01       	movw	r26, r16
    1a74:	c7 01       	movw	r24, r14
    1a76:	04 c0       	rjmp	.+8      	; 0x1a80 <__stack+0x1221>
    1a78:	88 0f       	add	r24, r24
    1a7a:	99 1f       	adc	r25, r25
    1a7c:	aa 1f       	adc	r26, r26
    1a7e:	bb 1f       	adc	r27, r27
    1a80:	6a 95       	dec	r22
    1a82:	d2 f7       	brpl	.-12     	; 0x1a78 <__stack+0x1219>
    1a84:	11 c0       	rjmp	.+34     	; 0x1aa8 <__stack+0x1249>
    1a86:	88 27       	eor	r24, r24
    1a88:	99 27       	eor	r25, r25
    1a8a:	86 1b       	sub	r24, r22
    1a8c:	97 0b       	sbc	r25, r23
    1a8e:	e9 a0       	ldd	r14, Y+33	; 0x21
    1a90:	fa a0       	ldd	r15, Y+34	; 0x22
    1a92:	0b a1       	ldd	r16, Y+35	; 0x23
    1a94:	1c a1       	ldd	r17, Y+36	; 0x24
    1a96:	04 c0       	rjmp	.+8      	; 0x1aa0 <__stack+0x1241>
    1a98:	16 95       	lsr	r17
    1a9a:	07 95       	ror	r16
    1a9c:	f7 94       	ror	r15
    1a9e:	e7 94       	ror	r14
    1aa0:	8a 95       	dec	r24
    1aa2:	d2 f7       	brpl	.-12     	; 0x1a98 <__stack+0x1239>
    1aa4:	d8 01       	movw	r26, r16
    1aa6:	c7 01       	movw	r24, r14
    1aa8:	e9 80       	ldd	r14, Y+1	; 0x01
    1aaa:	fa 80       	ldd	r15, Y+2	; 0x02
    1aac:	0b 81       	ldd	r16, Y+3	; 0x03
    1aae:	1c 81       	ldd	r17, Y+4	; 0x04
    1ab0:	2e 0d       	add	r18, r14
    1ab2:	3f 1d       	adc	r19, r15
    1ab4:	40 1f       	adc	r20, r16
    1ab6:	51 1f       	adc	r21, r17
    1ab8:	22 0d       	add	r18, r2
    1aba:	33 1d       	adc	r19, r3
    1abc:	44 1d       	adc	r20, r4
    1abe:	55 1d       	adc	r21, r5
    1ac0:	26 0d       	add	r18, r6
    1ac2:	37 1d       	adc	r19, r7
    1ac4:	48 1d       	adc	r20, r8
    1ac6:	59 1d       	adc	r21, r9
    1ac8:	2a 0d       	add	r18, r10
    1aca:	3b 1d       	adc	r19, r11
    1acc:	4c 1d       	adc	r20, r12
    1ace:	5d 1d       	adc	r21, r13
    1ad0:	28 0f       	add	r18, r24
    1ad2:	39 1f       	adc	r19, r25
    1ad4:	4a 1f       	adc	r20, r26
    1ad6:	5b 1f       	adc	r21, r27
    1ad8:	ca 01       	movw	r24, r20
    1ada:	b9 01       	movw	r22, r18
    1adc:	0e 94 ce 00 	call	0x19c	; 0x19c <SendSpi>
    1ae0:	80 91 62 00 	lds	r24, 0x0062
    1ae4:	8f 5f       	subi	r24, 0xFF	; 255
    1ae6:	80 93 62 00 	sts	0x0062, r24
    1aea:	88 30       	cpi	r24, 0x08	; 8
    1aec:	10 f0       	brcs	.+4      	; 0x1af2 <__stack+0x1293>
    1aee:	10 92 62 00 	sts	0x0062, r1
    1af2:	a4 96       	adiw	r28, 0x24	; 36
    1af4:	de bf       	out	0x3e, r29	; 62
    1af6:	cd bf       	out	0x3d, r28	; 61
    1af8:	cf 91       	pop	r28
    1afa:	df 91       	pop	r29
    1afc:	ff 91       	pop	r31
    1afe:	ef 91       	pop	r30
    1b00:	bf 91       	pop	r27
    1b02:	af 91       	pop	r26
    1b04:	9f 91       	pop	r25
    1b06:	8f 91       	pop	r24
    1b08:	7f 91       	pop	r23
    1b0a:	6f 91       	pop	r22
    1b0c:	5f 91       	pop	r21
    1b0e:	4f 91       	pop	r20
    1b10:	3f 91       	pop	r19
    1b12:	2f 91       	pop	r18
    1b14:	1f 91       	pop	r17
    1b16:	0f 91       	pop	r16
    1b18:	ff 90       	pop	r15
    1b1a:	ef 90       	pop	r14
    1b1c:	df 90       	pop	r13
    1b1e:	cf 90       	pop	r12
    1b20:	bf 90       	pop	r11
    1b22:	af 90       	pop	r10
    1b24:	9f 90       	pop	r9
    1b26:	8f 90       	pop	r8
    1b28:	7f 90       	pop	r7
    1b2a:	6f 90       	pop	r6
    1b2c:	5f 90       	pop	r5
    1b2e:	4f 90       	pop	r4
    1b30:	3f 90       	pop	r3
    1b32:	2f 90       	pop	r2
    1b34:	0f 90       	pop	r0
    1b36:	0f be       	out	0x3f, r0	; 63
    1b38:	0f 90       	pop	r0
    1b3a:	1f 90       	pop	r1
    1b3c:	18 95       	reti

00001b3e <clear>:
    1b3e:	80 e0       	ldi	r24, 0x00	; 0
    1b40:	91 e0       	ldi	r25, 0x01	; 1
    1b42:	ec e8       	ldi	r30, 0x8C	; 140
    1b44:	f0 e0       	ldi	r31, 0x00	; 0
    1b46:	df 01       	movw	r26, r30
    1b48:	9c 01       	movw	r18, r24
    1b4a:	1d 92       	st	X+, r1
    1b4c:	21 50       	subi	r18, 0x01	; 1
    1b4e:	30 40       	sbci	r19, 0x00	; 0
    1b50:	e1 f7       	brne	.-8      	; 0x1b4a <clear+0xc>
    1b52:	08 95       	ret

00001b54 <__mulsi3>:
    1b54:	62 9f       	mul	r22, r18
    1b56:	d0 01       	movw	r26, r0
    1b58:	73 9f       	mul	r23, r19
    1b5a:	f0 01       	movw	r30, r0
    1b5c:	82 9f       	mul	r24, r18
    1b5e:	e0 0d       	add	r30, r0
    1b60:	f1 1d       	adc	r31, r1
    1b62:	64 9f       	mul	r22, r20
    1b64:	e0 0d       	add	r30, r0
    1b66:	f1 1d       	adc	r31, r1
    1b68:	92 9f       	mul	r25, r18
    1b6a:	f0 0d       	add	r31, r0
    1b6c:	83 9f       	mul	r24, r19
    1b6e:	f0 0d       	add	r31, r0
    1b70:	74 9f       	mul	r23, r20
    1b72:	f0 0d       	add	r31, r0
    1b74:	65 9f       	mul	r22, r21
    1b76:	f0 0d       	add	r31, r0
    1b78:	99 27       	eor	r25, r25
    1b7a:	72 9f       	mul	r23, r18
    1b7c:	b0 0d       	add	r27, r0
    1b7e:	e1 1d       	adc	r30, r1
    1b80:	f9 1f       	adc	r31, r25
    1b82:	63 9f       	mul	r22, r19
    1b84:	b0 0d       	add	r27, r0
    1b86:	e1 1d       	adc	r30, r1
    1b88:	f9 1f       	adc	r31, r25
    1b8a:	bd 01       	movw	r22, r26
    1b8c:	cf 01       	movw	r24, r30
    1b8e:	11 24       	eor	r1, r1
    1b90:	08 95       	ret

00001b92 <_exit>:
    1b92:	f8 94       	cli

00001b94 <__stop_program>:
    1b94:	ff cf       	rjmp	.-2      	; 0x1b94 <__stop_program>
