
èèèèèèTV.elf:     file format elf32-avr

Sections:
Idx Name          Size      VMA       LMA       File off  Algn
  0 .text         00000fea  00000000  00000000  00000054  2**1
                  CONTENTS, ALLOC, LOAD, READONLY, CODE

Disassembly of section .text:

00000000 <__vectors>:
   0:	85 c7       	rjmp	.+3850   	; 0xf0c <__ctors_end>
   2:	8c c7       	rjmp	.+3864   	; 0xf1c <__bad_interrupt>
   4:	8b c7       	rjmp	.+3862   	; 0xf1c <__bad_interrupt>
   6:	8a c7       	rjmp	.+3860   	; 0xf1c <__bad_interrupt>
   8:	89 c7       	rjmp	.+3858   	; 0xf1c <__bad_interrupt>
   a:	88 c7       	rjmp	.+3856   	; 0xf1c <__bad_interrupt>
   c:	87 c7       	rjmp	.+3854   	; 0xf1c <__bad_interrupt>
   e:	86 c7       	rjmp	.+3852   	; 0xf1c <__bad_interrupt>
  10:	85 c7       	rjmp	.+3850   	; 0xf1c <__bad_interrupt>
  12:	84 c7       	rjmp	.+3848   	; 0xf1c <__bad_interrupt>
  14:	83 c7       	rjmp	.+3846   	; 0xf1c <__bad_interrupt>
  16:	82 c7       	rjmp	.+3844   	; 0xf1c <__bad_interrupt>
  18:	81 c7       	rjmp	.+3842   	; 0xf1c <__bad_interrupt>
  1a:	80 c7       	rjmp	.+3840   	; 0xf1c <__bad_interrupt>
  1c:	7f c7       	rjmp	.+3838   	; 0xf1c <__bad_interrupt>
  1e:	7e c7       	rjmp	.+3836   	; 0xf1c <__bad_interrupt>
  20:	7d c7       	rjmp	.+3834   	; 0xf1c <__bad_interrupt>
  22:	7c c7       	rjmp	.+3832   	; 0xf1c <__bad_interrupt>
  24:	7b c7       	rjmp	.+3830   	; 0xf1c <__bad_interrupt>

00000026 <tablica>:
  26:	02 02 02 02 02 02 02 02 02 02 02 02 02 02 02 02     ................
  36:	02 02 02 02 02 02 02 02 02 02 02 02 02 02 02 02     ................
  46:	02 02 02 02 02 02 02 02 00 02 02 02 02 02 02 02     ................
  56:	02 02 02 02 02 02 02 02 02 02 02 02 02 02 02 02     ................
  66:	02 02 02 02 02 02 02 02 02 02 02 02 02 02 02 02     ................
  76:	02 00 03 03 03 03 03 03 03 03 03 03 03 03 03 03     ................
  86:	03 03 03 03 03 03 03 03 03 03 03 03 03 03 03 03     ................
  96:	03 03 03 03 03 03 03 03 03 03 00 03 03 03 03 03     ................
  a6:	03 03 03 03 03 03 03 03 03 03 03 03 03 03 03 03     ................
  b6:	03 03 03 03 03 03 03 03 03 03 03 03 03 03 03 03     ................
  c6:	03 03 03 00 03 03 03 01 01 01 01 01 01 01 01 01     ................
  d6:	01 01 01 01 01 01 01 01 01 01 01 01 01 01 01 01     ................
  e6:	01 01 01 01 01 01 01 01 01 01 03 03 00 03 03 03     ................
  f6:	01 01 01 01 01 01 01 01 01 01 01 01 01 01 01 01     ................
 106:	01 01 01 01 01 01 01 01 01 01 01 01 01 01 01 01     ................
 116:	01 01 01 03 03 00 03 03 03 01 01 01 01 01 01 01     ................
 126:	01 01 01 01 01 01 01 01 01 01 01 01 01 01 01 01     ................
 136:	01 01 01 01 01 01 01 01 01 01 01 01 03 03 00 03     ................
 146:	03 03 01 01 01 01 01 02 02 01 01 01 01 01 01 01     ................
 156:	01 01 01 01 01 01 01 01 01 01 01 01 01 01 02 02     ................
 166:	01 01 01 01 01 03 03 00 03 03 03 01 01 01 01 01     ................
 176:	02 02 01 01 01 01 01 01 01 01 01 01 01 01 01 01     ................
 186:	01 01 01 01 01 01 01 02 02 01 01 01 01 01 03 03     ................
 196:	00 03 03 03 01 01 01 01 01 01 01 01 01 01 01 01     ................
 1a6:	01 01 01 01 01 01 01 01 01 01 01 01 01 01 01 01     ................
 1b6:	01 01 01 01 01 01 01 03 03 00 03 03 03 01 01 01     ................
 1c6:	01 01 01 01 01 01 01 01 01 01 01 01 01 01 01 01     ................
 1d6:	01 01 01 01 01 01 01 01 01 01 01 01 01 01 01 01     ................
 1e6:	03 03 00 03 03 03 01 01 01 01 01 01 01 01 01 01     ................
 1f6:	01 01 01 01 01 01 01 01 01 01 01 01 01 01 01 01     ................
 206:	01 01 01 01 01 01 01 01 01 03 03 00 03 03 03 01     ................
 216:	01 01 01 01 01 01 01 01 01 01 01 01 01 01 01 01     ................
 226:	01 01 01 01 01 01 01 01 01 01 01 01 01 01 01 01     ................
 236:	01 01 03 03 00 03 03 03 01 01 01 01 01 01 01 01     ................
 246:	01 01 01 01 01 01 01 01 01 01 01 01 01 01 01 01     ................
 256:	01 01 01 01 01 01 01 01 01 01 01 03 03 00 03 03     ................
 266:	03 01 01 01 01 01 01 01 01 01 01 01 01 01 01 01     ................
 276:	01 01 01 01 01 01 01 01 01 01 01 01 01 01 01 01     ................
 286:	01 01 01 01 03 03 00 03 03 03 01 01 01 01 01 01     ................
 296:	01 01 01 01 01 01 01 01 01 01 01 01 01 01 01 01     ................
 2a6:	01 01 01 01 01 01 01 01 01 01 01 01 01 03 03 00     ................
 2b6:	03 03 03 01 01 01 01 01 01 01 01 01 01 01 01 01     ................
 2c6:	01 01 01 01 01 01 01 01 01 01 01 01 01 01 01 01     ................
 2d6:	01 01 01 01 01 01 03 03 00 03 03 03 01 01 01 01     ................
 2e6:	02 02 02 02 02 02 02 02 02 02 02 02 02 02 02 02     ................
 2f6:	02 02 02 02 02 02 02 02 02 02 02 01 01 01 01 03     ................
 306:	03 00 03 03 03 01 01 01 01 01 01 01 01 01 01 01     ................
 316:	01 01 01 01 01 01 01 01 01 01 01 01 01 01 01 01     ................
 326:	01 01 01 01 01 01 01 01 03 03 00 03 03 03 01 01     ................
 336:	01 01 01 01 01 01 01 01 01 01 01 01 01 01 01 01     ................
 346:	01 01 01 01 01 01 01 01 01 01 01 01 01 01 01 01     ................
 356:	01 03 03 00 03 03 03 01 01 01 01 01 01 01 01 01     ................
 366:	01 01 01 01 01 01 01 01 01 01 01 01 01 01 01 01     ................
 376:	01 01 01 01 01 01 01 01 01 01 03 03 00 03 03 03     ................
 386:	01 01 01 01 01 01 01 01 01 01 01 01 01 01 01 01     ................
 396:	01 01 01 01 01 01 01 01 01 01 01 01 01 01 01 01     ................
 3a6:	01 01 01 03 03 00 03 03 03 01 01 01 01 01 01 01     ................
 3b6:	01 01 01 01 01 01 01 01 01 01 01 01 01 01 01 01     ................
 3c6:	01 01 01 01 01 01 01 01 01 01 01 01 03 03 00 03     ................
 3d6:	03 03 01 01 01 01 01 01 01 01 01 01 01 01 01 01     ................
 3e6:	01 01 01 01 01 01 01 01 01 01 01 01 01 01 01 01     ................
 3f6:	01 01 01 01 01 03 03 00 03 03 03 01 01 01 01 01     ................
 406:	01 01 01 01 01 01 01 01 01 01 01 01 01 01 01 01     ................
 416:	01 01 01 01 01 01 01 01 01 01 01 01 01 01 03 03     ................
 426:	00 03 03 03 01 01 01 01 01 01 01 01 01 01 01 01     ................
 436:	01 01 01 01 01 01 01 01 01 01 01 01 01 01 01 01     ................
 446:	01 01 01 01 01 01 01 03 03 00 03 03 03 03 03 03     ................
 456:	03 03 03 03 03 03 03 03 03 03 03 03 03 03 03 03     ................
 466:	03 03 03 03 03 03 03 03 03 03 03 03 03 03 03 03     ................
 476:	03 03 00 03 03 03 03 03 03 03 03 03 03 03 03 03     ................
 486:	03 03 03 03 03 03 03 03 03 03 03 03 03 03 03 03     ................
 496:	03 03 03 03 03 03 03 03 03 03 03 00 02 02 02 02     ................
 4a6:	02 02 02 02 02 02 02 02 02 02 02 02 02 02 02 02     ................
 4b6:	02 02 02 02 02 02 02 02 02 02 02 02 02 02 02 02     ................
 4c6:	02 02 02 02 00 02 02 02 02 02 02 02 02 02 02 02     ................
 4d6:	02 02 02 02 02 02 02 02 02 02 02 02 02 02 02 02     ................
 4e6:	02 02 02 02 02 02 02 02 02 02 02 02 02 00 02 02     ................
 4f6:	02 02 02 02 02 02 02 02 02 02 02 02 02 02 02 02     ................
 506:	02 02 02 02 02 02 02 02 02 02 02 02 02 02 02 02     ................
 516:	02 02 02 02 02 02 02 02 02 02 02 02 02 02 02 02     ................
 526:	02 02 02 02 02 02 02 02 02 02 02 02 02 02 02 02     ................
 536:	02 02 02 02 02 02 02 02 02 02 02 02 02 02 02 00     ................
 546:	02 02 02 02 02 02 02 02 02 02 02 02 02 02 02 02     ................
 556:	02 02 02 02 02 02 02 02 02 02 02 02 02 02 02 02     ................
 566:	02 02 02 02 02 02 02 02 00 03 03 03 03 03 03 03     ................
 576:	03 03 03 03 03 03 03 03 03 03 03 03 03 03 03 03     ................
 586:	03 03 03 03 03 03 03 03 03 03 03 03 03 03 03 03     ................
 596:	03 00 03 03 03 03 03 03 03 03 03 03 03 03 03 03     ................
 5a6:	03 03 03 03 03 03 03 03 03 03 03 03 03 03 03 03     ................
 5b6:	03 03 03 03 03 03 03 03 03 03 00 03 03 03 01 01     ................
 5c6:	01 01 01 01 01 01 01 01 01 01 01 01 01 01 01 01     ................
 5d6:	01 01 01 01 01 01 01 01 01 01 01 01 01 01 01 01     ................
 5e6:	01 03 03 00 03 03 03 01 01 01 01 01 01 01 01 01     ................
 5f6:	01 01 01 01 01 01 01 01 01 01 01 01 01 01 01 01     ................
 606:	01 01 01 01 01 01 01 01 01 01 03 03 00 03 03 03     ................
 616:	01 01 01 01 01 01 01 01 01 01 01 01 01 01 01 01     ................
 626:	01 01 01 01 01 01 01 01 01 01 01 01 01 01 01 01     ................
 636:	01 01 01 03 03 00 03 03 03 01 01 01 01 01 02 02     ................
 646:	01 01 01 01 01 01 01 01 01 01 01 01 01 01 01 01     ................
 656:	01 01 01 01 01 02 02 01 01 01 01 01 03 03 00 03     ................
 666:	03 03 01 01 01 01 01 02 02 01 01 01 01 01 01 01     ................
 676:	01 01 01 01 01 01 01 01 01 01 01 01 01 01 02 02     ................
 686:	01 01 01 01 01 03 03 00 03 03 03 01 01 01 01 01     ................
 696:	01 01 01 01 01 01 01 01 01 01 01 01 01 01 01 01     ................
 6a6:	01 01 01 01 01 01 01 01 01 01 01 01 01 01 03 03     ................
 6b6:	00 03 03 03 01 01 01 01 01 01 01 01 01 01 01 01     ................
 6c6:	01 01 01 01 01 01 01 01 01 01 01 01 01 01 01 01     ................
 6d6:	01 01 01 01 01 01 01 03 03 00 03 03 03 01 01 01     ................
 6e6:	01 01 01 01 01 01 01 01 01 01 01 01 01 01 01 01     ................
 6f6:	01 01 01 01 01 01 01 01 01 01 01 01 01 01 01 01     ................
 706:	03 03 00 03 03 03 01 01 01 01 01 01 01 01 01 01     ................
 716:	01 01 01 01 01 01 01 01 01 01 01 01 01 01 01 01     ................
 726:	01 01 01 01 01 01 01 01 01 03 03 00 03 03 03 01     ................
 736:	01 01 01 01 01 01 01 01 01 01 01 01 01 01 01 01     ................
 746:	01 01 01 01 01 01 01 01 01 01 01 01 01 01 01 01     ................
 756:	01 01 03 03 00 03 03 03 01 01 01 01 01 01 01 01     ................
 766:	01 01 01 01 01 01 01 01 01 01 01 01 01 01 01 01     ................
 776:	01 01 01 01 01 01 01 01 01 01 01 03 03 00 03 03     ................
 786:	03 01 01 01 01 01 01 01 01 01 01 01 01 01 01 01     ................
 796:	01 01 01 01 01 01 01 01 01 01 01 01 01 01 01 01     ................
 7a6:	01 01 01 01 03 03 00 03 03 03 01 01 01 01 01 01     ................
 7b6:	01 01 01 01 01 01 01 01 01 01 01 01 01 01 01 01     ................
 7c6:	01 01 01 01 01 01 01 01 01 01 01 01 01 03 03 00     ................
 7d6:	03 03 03 01 01 01 01 02 02 02 02 01 01 01 01 01     ................
 7e6:	01 01 01 01 01 01 01 01 01 01 01 01 01 01 02 02     ................
 7f6:	02 02 01 01 01 01 03 03 00 03 03 03 01 01 01 01     ................
 806:	01 01 01 01 02 02 02 02 02 02 01 01 01 01 01 01     ................
 816:	02 02 02 02 02 02 02 01 01 01 01 01 01 01 01 03     ................
 826:	03 00 03 03 03 01 01 01 01 01 01 01 01 01 01 01     ................
 836:	01 01 01 02 02 02 02 02 02 01 01 01 01 01 01 01     ................
 846:	01 01 01 01 01 01 01 01 03 03 00 03 03 03 01 01     ................
 856:	01 01 01 01 01 01 01 01 01 01 01 01 01 01 01 01     ................
 866:	01 01 01 01 01 01 01 01 01 01 01 01 01 01 01 01     ................
 876:	01 03 03 00 03 03 03 01 01 01 01 01 01 01 01 01     ................
 886:	01 01 01 01 01 01 01 01 01 01 01 01 01 01 01 01     ................
 896:	01 01 01 01 01 01 01 01 01 01 03 03 00 03 03 03     ................
 8a6:	01 01 01 01 01 01 01 01 01 01 01 01 01 01 01 01     ................
 8b6:	01 01 01 01 01 01 01 01 01 01 01 01 01 01 01 01     ................
 8c6:	01 01 01 03 03 00 03 03 03 01 01 01 01 01 01 01     ................
 8d6:	01 01 01 01 01 01 01 01 01 01 01 01 01 01 01 01     ................
 8e6:	01 01 01 01 01 01 01 01 01 01 01 01 03 03 00 03     ................
 8f6:	03 03 01 01 01 01 01 01 01 01 01 01 01 01 01 01     ................
 906:	01 01 01 01 01 01 01 01 01 01 01 01 01 01 01 01     ................
 916:	01 01 01 01 01 03 03 00 03 03 03 01 01 01 01 01     ................
 926:	01 01 01 01 01 01 01 01 01 01 01 01 01 01 01 01     ................
 936:	01 01 01 01 01 01 01 01 01 01 01 01 01 01 03 03     ................
 946:	00 03 03 03 03 03 03 03 03 03 03 03 03 03 03 03     ................
 956:	03 03 03 03 03 03 03 03 03 03 03 03 03 03 03 03     ................
 966:	03 03 03 03 03 03 03 03 03 00 03 03 03 03 03 03     ................
 976:	03 03 03 03 03 03 03 03 03 03 03 03 03 03 03 03     ................
 986:	03 03 03 03 03 03 03 03 03 03 03 03 03 03 03 03     ................
 996:	03 03 00 02 02 02 02 02 02 02 02 02 02 02 02 02     ................
 9a6:	02 02 02 02 02 02 02 02 02 02 02 02 02 02 02 02     ................
 9b6:	02 02 02 02 02 02 02 02 02 02 02 00 02 02 02 02     ................
 9c6:	02 02 02 02 02 02 02 02 02 02 02 02 02 02 02 02     ................
 9d6:	02 02 02 02 02 02 02 02 02 02 02 02 02 02 02 02     ................
 9e6:	02 02 02 02 00 02 02 02 02 02 02 02 02 02 02 02     ................
 9f6:	02 02 02 02 02 02 02 02 02 02 02 02 02 02 02 02     ................
 a06:	02 02 02 02 02 02 02 02 02 02 02 02 02 02 02 02     ................
 a16:	02 02 02 02 02 02 02 02 02 02 02 02 02 02 02 02     ................
 a26:	02 02 02 02 02 02 02 02 02 02 02 02 02 02 02 02     ................
 a36:	02 02 02 02 02 02 00 02 02 02 02 02 02 02 02 02     ................
 a46:	02 02 02 02 02 02 02 02 02 02 02 02 02 02 02 02     ................
 a56:	02 02 02 02 02 02 02 02 02 02 02 02 02 02 02 00     ................
 a66:	03 03 03 03 03 03 03 03 03 03 03 03 03 03 03 03     ................
 a76:	03 03 03 03 03 03 03 03 03 03 03 03 03 03 03 03     ................
 a86:	03 03 03 03 03 03 03 03 00 03 03 03 03 03 03 03     ................
 a96:	03 03 03 03 03 03 03 03 03 03 03 03 03 03 03 03     ................
 aa6:	03 03 03 03 03 03 03 03 03 03 03 03 03 03 03 03     ................
 ab6:	03 00 03 03 03 01 01 01 01 01 01 01 01 01 01 01     ................
 ac6:	01 01 01 01 01 01 01 01 01 01 01 01 01 01 01 01     ................
 ad6:	01 01 01 01 01 01 01 01 03 03 00 03 03 03 01 01     ................
 ae6:	01 01 01 01 01 01 01 01 01 01 01 01 01 01 01 01     ................
 af6:	01 01 01 01 01 01 01 01 01 01 01 01 01 01 01 01     ................
 b06:	01 03 03 00 03 03 03 01 01 01 01 01 01 01 01 01     ................
 b16:	01 01 01 01 01 01 01 01 01 01 01 01 01 01 01 01     ................
 b26:	01 01 01 01 01 01 01 01 01 01 03 03 00 03 03 03     ................
 b36:	01 01 01 01 01 02 02 01 01 01 01 01 01 01 01 01     ................
 b46:	01 01 01 01 01 01 01 01 01 01 01 01 02 02 01 01     ................
 b56:	01 01 01 03 03 00 03 03 03 01 01 01 01 01 02 02     ................
 b66:	01 01 01 01 01 01 01 01 01 01 01 01 01 01 01 01     ................
 b76:	01 01 01 01 01 02 02 01 01 01 01 01 03 03 00 03     ................
 b86:	03 03 01 01 01 01 01 01 01 01 01 01 01 01 01 01     ................
 b96:	01 01 01 01 01 01 01 01 01 01 01 01 01 01 01 01     ................
 ba6:	01 01 01 01 01 03 03 00 03 03 03 01 01 01 01 01     ................
 bb6:	01 01 01 01 01 01 01 01 01 01 01 01 01 01 01 01     ................
 bc6:	01 01 01 01 01 01 01 01 01 01 01 01 01 01 03 03     ................
 bd6:	00 03 03 03 01 01 01 01 01 01 01 01 01 01 01 01     ................
 be6:	01 01 01 01 01 01 01 01 01 01 01 01 01 01 01 01     ................
 bf6:	01 01 01 01 01 01 01 03 03 00 03 03 03 01 01 01     ................
 c06:	01 01 01 01 01 01 01 01 01 01 01 01 01 01 01 01     ................
 c16:	01 01 01 01 01 01 01 01 01 01 01 01 01 01 01 01     ................
 c26:	03 03 00 03 03 03 01 01 01 01 01 01 01 01 01 01     ................
 c36:	01 01 01 01 01 01 01 01 01 01 01 01 01 01 01 01     ................
 c46:	01 01 01 01 01 01 01 01 01 03 03 00 03 03 03 01     ................
 c56:	01 01 01 01 01 01 01 01 01 01 01 01 01 01 01 01     ................
 c66:	01 01 01 01 01 01 01 01 01 01 01 01 01 01 01 01     ................
 c76:	01 01 03 03 00 03 03 03 01 01 01 01 01 01 01 01     ................
 c86:	01 01 01 01 01 01 01 01 01 01 01 01 01 01 01 01     ................
 c96:	01 01 01 01 01 01 01 01 01 01 01 03 03 00 03 03     ................
 ca6:	03 01 01 01 01 01 01 01 01 01 01 01 01 01 01 01     ................
 cb6:	01 01 01 01 01 01 01 01 01 01 01 01 01 01 01 01     ................
 cc6:	01 01 01 01 03 03 00 03 03 03 01 01 01 01 02 02     ................
 cd6:	02 02 01 01 01 01 01 01 01 01 01 01 01 01 01 01     ................
 ce6:	01 01 01 01 01 02 02 02 02 01 01 01 01 03 03 00     ................
 cf6:	03 03 03 01 01 01 01 01 01 01 02 02 02 01 01 01     ................
 d06:	01 01 01 01 01 01 01 01 01 01 01 01 02 02 02 01     ................
 d16:	01 01 01 01 01 01 03 03 00 03 03 03 01 01 01 01     ................
 d26:	01 01 01 01 01 02 02 02 01 01 01 01 01 01 01 01     ................
 d36:	01 01 02 02 02 01 01 01 01 01 01 01 01 01 01 03     ................
 d46:	03 00 03 03 03 01 01 01 01 01 01 01 01 01 01 01     ................
 d56:	02 02 02 01 01 01 01 01 01 02 02 02 01 01 01 01     ................
 d66:	01 01 01 01 01 01 01 01 03 03 00 03 03 03 01 01     ................
 d76:	01 01 01 01 01 01 01 01 01 01 01 01 02 02 01 01     ................
 d86:	02 02 01 01 01 01 01 01 01 01 01 01 01 01 01 01     ................
 d96:	01 03 03 00 03 03 03 01 01 01 01 01 01 01 01 01     ................
 da6:	01 01 01 01 01 01 01 02 02 01 01 01 01 01 01 01     ................
 db6:	01 01 01 01 01 01 01 01 01 01 03 03 00 03 03 03     ................
 dc6:	01 01 01 01 01 01 01 01 01 01 01 01 01 01 01 01     ................
 dd6:	01 01 01 01 01 01 01 01 01 01 01 01 01 01 01 01     ................
 de6:	01 01 01 03 03 00 03 03 03 01 01 01 01 01 01 01     ................
 df6:	01 01 01 01 01 01 01 01 01 01 01 01 01 01 01 01     ................
 e06:	01 01 01 01 01 01 01 01 01 01 01 01 03 03 00 03     ................
 e16:	03 03 01 01 01 01 01 01 01 01 01 01 01 01 01 01     ................
 e26:	01 01 01 01 01 01 01 01 01 01 01 01 01 01 01 01     ................
 e36:	01 01 01 01 01 03 03 00 03 03 03 03 03 03 03 03     ................
 e46:	03 03 03 03 03 03 03 03 03 03 03 03 03 03 03 03     ................
 e56:	03 03 03 03 03 03 03 03 03 03 03 03 03 03 03 03     ................
 e66:	00 03 03 03 03 03 03 03 03 03 03 03 03 03 03 03     ................
 e76:	03 03 03 03 03 03 03 03 03 03 03 03 03 03 03 03     ................
 e86:	03 03 03 03 03 03 03 03 03 00 02 02 02 02 02 02     ................
 e96:	02 02 02 02 02 02 02 02 02 02 02 02 02 02 02 02     ................
 ea6:	02 02 02 02 02 02 02 02 02 02 02 02 02 02 02 02     ................
 eb6:	02 02 00 02 02 02 02 02 02 02 02 02 02 02 02 02     ................
 ec6:	02 02 02 02 02 02 02 02 02 02 02 02 02 02 02 02     ................
 ed6:	02 02 02 02 02 02 02 02 02 02 02 00 02 02 02 02     ................
 ee6:	02 02 02 02 02 02 02 02 02 02 02 02 02 02 02 02     ................
 ef6:	02 02 02 02 02 02 02 02 02 02 02 02 02 02 02 02     ................
 f06:	02 02 02 02 02 00                                   ......

00000f0c <__ctors_end>:
 f0c:	11 24       	eor	r1, r1
 f0e:	1f be       	out	0x3f, r1	; 63
 f10:	cf e5       	ldi	r28, 0x5F	; 95
 f12:	d4 e0       	ldi	r29, 0x04	; 4
 f14:	de bf       	out	0x3e, r29	; 62
 f16:	cd bf       	out	0x3d, r28	; 61
 f18:	18 d0       	rcall	.+48     	; 0xf4a <main>
 f1a:	65 c0       	rjmp	.+202    	; 0xfe6 <_exit>

00000f1c <__bad_interrupt>:
 f1c:	71 c8       	rjmp	.-3870   	; 0x0 <__vectors>

00000f1e <sync_pulse>:
 f1e:	90 98       	cbi	0x12, 0	; 18
 f20:	91 9a       	sbi	0x12, 1	; 18
 f22:	85 e0       	ldi	r24, 0x05	; 5
 f24:	8a 95       	dec	r24
 f26:	f1 f7       	brne	.-4      	; 0xf24 <sync_pulse+0x6>
 f28:	90 98       	cbi	0x12, 0	; 18
 f2a:	91 98       	cbi	0x12, 1	; 18
 f2c:	87 e1       	ldi	r24, 0x17	; 23
 f2e:	8a 95       	dec	r24
 f30:	f1 f7       	brne	.-4      	; 0xf2e <sync_pulse+0x10>
 f32:	90 98       	cbi	0x12, 0	; 18
 f34:	91 9a       	sbi	0x12, 1	; 18
 f36:	8d e1       	ldi	r24, 0x1D	; 29
 f38:	8a 95       	dec	r24
 f3a:	f1 f7       	brne	.-4      	; 0xf38 <sync_pulse+0x1a>
 f3c:	08 95       	ret

00000f3e <v_pulse>:
 f3e:	12 ba       	out	0x12, r1	; 18
 f40:	80 e0       	ldi	r24, 0x00	; 0
 f42:	92 e0       	ldi	r25, 0x02	; 2
 f44:	01 97       	sbiw	r24, 0x01	; 1
 f46:	f1 f7       	brne	.-4      	; 0xf44 <v_pulse+0x6>
 f48:	08 95       	ret

00000f4a <main>:
 f4a:	8f 92       	push	r8
 f4c:	9f 92       	push	r9
 f4e:	af 92       	push	r10
 f50:	bf 92       	push	r11
 f52:	cf 92       	push	r12
 f54:	df 92       	push	r13
 f56:	ef 92       	push	r14
 f58:	ff 92       	push	r15
 f5a:	0f 93       	push	r16
 f5c:	1f 93       	push	r17
 f5e:	cf 93       	push	r28
 f60:	df 93       	push	r29
 f62:	8f ef       	ldi	r24, 0xFF	; 255
 f64:	81 bb       	out	0x11, r24	; 17
 f66:	00 e0       	ldi	r16, 0x00	; 0
 f68:	10 e0       	ldi	r17, 0x00	; 0
 f6a:	ff 24       	eor	r15, r15
 f6c:	ee 24       	eor	r14, r14
 f6e:	81 2c       	mov	r8, r1
 f70:	92 e0       	ldi	r25, 0x02	; 2
 f72:	99 2e       	mov	r9, r25
 f74:	87 ef       	ldi	r24, 0xF7	; 247
 f76:	a8 2e       	mov	r10, r24
 f78:	84 e0       	ldi	r24, 0x04	; 4
 f7a:	b8 2e       	mov	r11, r24
 f7c:	e3 94       	inc	r14
 f7e:	89 e1       	ldi	r24, 0x19	; 25
 f80:	e8 16       	cp	r14, r24
 f82:	11 f4       	brne	.+4      	; 0xf88 <main+0x3e>
 f84:	f3 94       	inc	r15
 f86:	ee 24       	eor	r14, r14
 f88:	83 e0       	ldi	r24, 0x03	; 3
 f8a:	f8 16       	cp	r15, r24
 f8c:	09 f4       	brne	.+2      	; 0xf90 <main+0x46>
 f8e:	ff 24       	eor	r15, r15
 f90:	12 ba       	out	0x12, r1	; 18
 f92:	c4 01       	movw	r24, r8
 f94:	01 97       	sbiw	r24, 0x01	; 1
 f96:	f1 f7       	brne	.-4      	; 0xf94 <main+0x4a>
 f98:	8f 2d       	mov	r24, r15
 f9a:	90 e0       	ldi	r25, 0x00	; 0
 f9c:	8a 9d       	mul	r24, r10
 f9e:	60 01       	movw	r12, r0
 fa0:	8b 9d       	mul	r24, r11
 fa2:	d0 0c       	add	r13, r0
 fa4:	9a 9d       	mul	r25, r10
 fa6:	d0 0c       	add	r13, r0
 fa8:	11 24       	eor	r1, r1
 faa:	c0 e0       	ldi	r28, 0x00	; 0
 fac:	d0 e0       	ldi	r29, 0x00	; 0
 fae:	fe 01       	movw	r30, r28
 fb0:	ec 0d       	add	r30, r12
 fb2:	fd 1d       	adc	r31, r13
 fb4:	ea 5d       	subi	r30, 0xDA	; 218
 fb6:	ff 4f       	sbci	r31, 0xFF	; 255
 fb8:	84 91       	lpm	r24, Z+
 fba:	88 23       	and	r24, r24
 fbc:	59 f4       	brne	.+22     	; 0xfd4 <main+0x8a>
 fbe:	af df       	rcall	.-162    	; 0xf1e <sync_pulse>
 fc0:	0f 5f       	subi	r16, 0xFF	; 255
 fc2:	1f 4f       	sbci	r17, 0xFF	; 255
 fc4:	0a 30       	cpi	r16, 0x0A	; 10
 fc6:	11 05       	cpc	r17, r1
 fc8:	19 f4       	brne	.+6      	; 0xfd0 <main+0x86>
 fca:	00 e0       	ldi	r16, 0x00	; 0
 fcc:	10 e0       	ldi	r17, 0x00	; 0
 fce:	05 c0       	rjmp	.+10     	; 0xfda <main+0x90>
 fd0:	a9 97       	sbiw	r28, 0x29	; 41
 fd2:	03 c0       	rjmp	.+6      	; 0xfda <main+0x90>
 fd4:	82 bb       	out	0x12, r24	; 18
 fd6:	00 00       	nop
 fd8:	00 00       	nop
 fda:	21 96       	adiw	r28, 0x01	; 1
 fdc:	84 e0       	ldi	r24, 0x04	; 4
 fde:	c7 3f       	cpi	r28, 0xF7	; 247
 fe0:	d8 07       	cpc	r29, r24
 fe2:	64 f6       	brge	.-104    	; 0xf7c <main+0x32>
 fe4:	e4 cf       	rjmp	.-56     	; 0xfae <main+0x64>

00000fe6 <_exit>:
 fe6:	f8 94       	cli

00000fe8 <__stop_program>:
 fe8:	ff cf       	rjmp	.-2      	; 0xfe8 <__stop_program>
