
00_HENIO.elf:     file format elf32-avr

Sections:
Idx Name          Size      VMA       LMA       File off  Algn
  0 .text         00000ab6  00000000  00000000  00000094  2**1
                  CONTENTS, ALLOC, LOAD, READONLY, CODE
  1 .data         00000012  00800060  00000ab6  00000b4a  2**0
                  CONTENTS, ALLOC, LOAD, DATA
  2 .bss          0000002f  00800072  00800072  00000b5c  2**0
                  ALLOC

Disassembly of section .text:

00000000 <__vectors>:
   0:	1a c0       	rjmp	.+52     	; 0x36 <__ctors_end>
   2:	d2 c0       	rjmp	.+420    	; 0x1a8 <__vector_1>
   4:	33 c0       	rjmp	.+102    	; 0x6c <__bad_interrupt>
   6:	49 c0       	rjmp	.+146    	; 0x9a <__vector_3>
   8:	31 c0       	rjmp	.+98     	; 0x6c <__bad_interrupt>
   a:	30 c0       	rjmp	.+96     	; 0x6c <__bad_interrupt>
   c:	2f c0       	rjmp	.+94     	; 0x6c <__bad_interrupt>
   e:	2e c0       	rjmp	.+92     	; 0x6c <__bad_interrupt>
  10:	2d c0       	rjmp	.+90     	; 0x6c <__bad_interrupt>
  12:	2c c0       	rjmp	.+88     	; 0x6c <__bad_interrupt>
  14:	2b c0       	rjmp	.+86     	; 0x6c <__bad_interrupt>
  16:	2a c0       	rjmp	.+84     	; 0x6c <__bad_interrupt>
  18:	29 c0       	rjmp	.+82     	; 0x6c <__bad_interrupt>
  1a:	28 c0       	rjmp	.+80     	; 0x6c <__bad_interrupt>
  1c:	27 c0       	rjmp	.+78     	; 0x6c <__bad_interrupt>
  1e:	26 c0       	rjmp	.+76     	; 0x6c <__bad_interrupt>
  20:	25 c0       	rjmp	.+74     	; 0x6c <__bad_interrupt>
  22:	24 c0       	rjmp	.+72     	; 0x6c <__bad_interrupt>
  24:	23 c0       	rjmp	.+70     	; 0x6c <__bad_interrupt>

00000026 <cyfry>:
  26:	7b 0a b3 9b ca d9 f9 4b fb db 00 80 c3 71 00 00     {......K.....q..

00000036 <__ctors_end>:
  36:	11 24       	eor	r1, r1
  38:	1f be       	out	0x3f, r1	; 63
  3a:	cf e5       	ldi	r28, 0x5F	; 95
  3c:	d4 e0       	ldi	r29, 0x04	; 4
  3e:	de bf       	out	0x3e, r29	; 62
  40:	cd bf       	out	0x3d, r28	; 61

00000042 <__do_copy_data>:
  42:	10 e0       	ldi	r17, 0x00	; 0
  44:	a0 e6       	ldi	r26, 0x60	; 96
  46:	b0 e0       	ldi	r27, 0x00	; 0
  48:	e6 eb       	ldi	r30, 0xB6	; 182
  4a:	fa e0       	ldi	r31, 0x0A	; 10
  4c:	02 c0       	rjmp	.+4      	; 0x52 <.do_copy_data_start>

0000004e <.do_copy_data_loop>:
  4e:	05 90       	lpm	r0, Z+
  50:	0d 92       	st	X+, r0

00000052 <.do_copy_data_start>:
  52:	a2 37       	cpi	r26, 0x72	; 114
  54:	b1 07       	cpc	r27, r17
  56:	d9 f7       	brne	.-10     	; 0x4e <.do_copy_data_loop>

00000058 <__do_clear_bss>:
  58:	10 e0       	ldi	r17, 0x00	; 0
  5a:	a2 e7       	ldi	r26, 0x72	; 114
  5c:	b0 e0       	ldi	r27, 0x00	; 0
  5e:	01 c0       	rjmp	.+2      	; 0x62 <.do_clear_bss_start>

00000060 <.do_clear_bss_loop>:
  60:	1d 92       	st	X+, r1

00000062 <.do_clear_bss_start>:
  62:	a1 3a       	cpi	r26, 0xA1	; 161
  64:	b1 07       	cpc	r27, r17
  66:	e1 f7       	brne	.-8      	; 0x60 <.do_clear_bss_loop>
  68:	b9 d0       	rcall	.+370    	; 0x1dc <main>
  6a:	23 c5       	rjmp	.+2630   	; 0xab2 <_exit>

0000006c <__bad_interrupt>:
  6c:	c9 cf       	rjmp	.-110    	; 0x0 <__vectors>

0000006e <d_led_init>:
  6e:	8b ef       	ldi	r24, 0xFB	; 251
  70:	81 bb       	out	0x11, r24	; 17
  72:	8f ef       	ldi	r24, 0xFF	; 255
  74:	82 bb       	out	0x12, r24	; 18
  76:	87 b3       	in	r24, 0x17	; 23
  78:	8f 63       	ori	r24, 0x3F	; 63
  7a:	87 bb       	out	0x17, r24	; 23
  7c:	88 b3       	in	r24, 0x18	; 24
  7e:	8f 63       	ori	r24, 0x3F	; 63
  80:	88 bb       	out	0x18, r24	; 24
  82:	85 b5       	in	r24, 0x25	; 37
  84:	88 60       	ori	r24, 0x08	; 8
  86:	85 bd       	out	0x25, r24	; 37
  88:	85 b5       	in	r24, 0x25	; 37
  8a:	86 60       	ori	r24, 0x06	; 6
  8c:	85 bd       	out	0x25, r24	; 37
  8e:	87 e3       	ldi	r24, 0x37	; 55
  90:	83 bd       	out	0x23, r24	; 35
  92:	89 b7       	in	r24, 0x39	; 57
  94:	80 68       	ori	r24, 0x80	; 128
  96:	89 bf       	out	0x39, r24	; 57
  98:	08 95       	ret

0000009a <__vector_3>:
  9a:	1f 92       	push	r1
  9c:	0f 92       	push	r0
  9e:	0f b6       	in	r0, 0x3f	; 63
  a0:	0f 92       	push	r0
  a2:	11 24       	eor	r1, r1
  a4:	2f 93       	push	r18
  a6:	8f 93       	push	r24
  a8:	9f 93       	push	r25
  aa:	ef 93       	push	r30
  ac:	ff 93       	push	r31
  ae:	88 b3       	in	r24, 0x18	; 24
  b0:	8f 63       	ori	r24, 0x3F	; 63
  b2:	88 bb       	out	0x18, r24	; 24
  b4:	20 91 60 00 	lds	r18, 0x0060
  b8:	21 30       	cpi	r18, 0x01	; 1
  ba:	41 f4       	brne	.+16     	; 0xcc <__vector_3+0x32>
  bc:	82 b3       	in	r24, 0x12	; 18
  be:	e0 91 75 00 	lds	r30, 0x0075
  c2:	f0 e0       	ldi	r31, 0x00	; 0
  c4:	ea 5d       	subi	r30, 0xDA	; 218
  c6:	ff 4f       	sbci	r31, 0xFF	; 255
  c8:	e4 91       	lpm	r30, Z+
  ca:	31 c0       	rjmp	.+98     	; 0x12e <__vector_3+0x94>
  cc:	22 30       	cpi	r18, 0x02	; 2
  ce:	41 f4       	brne	.+16     	; 0xe0 <__vector_3+0x46>
  d0:	82 b3       	in	r24, 0x12	; 18
  d2:	e0 91 76 00 	lds	r30, 0x0076
  d6:	f0 e0       	ldi	r31, 0x00	; 0
  d8:	ea 5d       	subi	r30, 0xDA	; 218
  da:	ff 4f       	sbci	r31, 0xFF	; 255
  dc:	e4 91       	lpm	r30, Z+
  de:	27 c0       	rjmp	.+78     	; 0x12e <__vector_3+0x94>
  e0:	24 30       	cpi	r18, 0x04	; 4
  e2:	41 f4       	brne	.+16     	; 0xf4 <__vector_3+0x5a>
  e4:	82 b3       	in	r24, 0x12	; 18
  e6:	e0 91 77 00 	lds	r30, 0x0077
  ea:	f0 e0       	ldi	r31, 0x00	; 0
  ec:	ea 5d       	subi	r30, 0xDA	; 218
  ee:	ff 4f       	sbci	r31, 0xFF	; 255
  f0:	e4 91       	lpm	r30, Z+
  f2:	1d c0       	rjmp	.+58     	; 0x12e <__vector_3+0x94>
  f4:	28 30       	cpi	r18, 0x08	; 8
  f6:	41 f4       	brne	.+16     	; 0x108 <__vector_3+0x6e>
  f8:	82 b3       	in	r24, 0x12	; 18
  fa:	e0 91 72 00 	lds	r30, 0x0072
  fe:	f0 e0       	ldi	r31, 0x00	; 0
 100:	ea 5d       	subi	r30, 0xDA	; 218
 102:	ff 4f       	sbci	r31, 0xFF	; 255
 104:	e4 91       	lpm	r30, Z+
 106:	13 c0       	rjmp	.+38     	; 0x12e <__vector_3+0x94>
 108:	20 31       	cpi	r18, 0x10	; 16
 10a:	41 f4       	brne	.+16     	; 0x11c <__vector_3+0x82>
 10c:	82 b3       	in	r24, 0x12	; 18
 10e:	e0 91 73 00 	lds	r30, 0x0073
 112:	f0 e0       	ldi	r31, 0x00	; 0
 114:	ea 5d       	subi	r30, 0xDA	; 218
 116:	ff 4f       	sbci	r31, 0xFF	; 255
 118:	e4 91       	lpm	r30, Z+
 11a:	09 c0       	rjmp	.+18     	; 0x12e <__vector_3+0x94>
 11c:	20 32       	cpi	r18, 0x20	; 32
 11e:	59 f4       	brne	.+22     	; 0x136 <__vector_3+0x9c>
 120:	82 b3       	in	r24, 0x12	; 18
 122:	e0 91 74 00 	lds	r30, 0x0074
 126:	f0 e0       	ldi	r31, 0x00	; 0
 128:	ea 5d       	subi	r30, 0xDA	; 218
 12a:	ff 4f       	sbci	r31, 0xFF	; 255
 12c:	e4 91       	lpm	r30, Z+
 12e:	eb 7f       	andi	r30, 0xFB	; 251
 130:	84 70       	andi	r24, 0x04	; 4
 132:	e8 2b       	or	r30, r24
 134:	e2 bb       	out	0x12, r30	; 18
 136:	88 b3       	in	r24, 0x18	; 24
 138:	92 2f       	mov	r25, r18
 13a:	90 95       	com	r25
 13c:	98 23       	and	r25, r24
 13e:	98 bb       	out	0x18, r25	; 24
 140:	82 2f       	mov	r24, r18
 142:	88 0f       	add	r24, r24
 144:	80 93 60 00 	sts	0x0060, r24
 148:	81 32       	cpi	r24, 0x21	; 33
 14a:	18 f0       	brcs	.+6      	; 0x152 <__vector_3+0xb8>
 14c:	81 e0       	ldi	r24, 0x01	; 1
 14e:	80 93 60 00 	sts	0x0060, r24
 152:	ff 91       	pop	r31
 154:	ef 91       	pop	r30
 156:	9f 91       	pop	r25
 158:	8f 91       	pop	r24
 15a:	2f 91       	pop	r18
 15c:	0f 90       	pop	r0
 15e:	0f be       	out	0x3f, r0	; 63
 160:	0f 90       	pop	r0
 162:	1f 90       	pop	r1
 164:	18 95       	reti

00000166 <display_temp>:
 166:	aa 9a       	sbi	0x15, 2	; 21
 168:	8a e0       	ldi	r24, 0x0A	; 10
 16a:	80 93 75 00 	sts	0x0075, r24
 16e:	80 91 79 00 	lds	r24, 0x0079
 172:	88 23       	and	r24, r24
 174:	19 f0       	breq	.+6      	; 0x17c <display_temp+0x16>
 176:	8b e0       	ldi	r24, 0x0B	; 11
 178:	80 93 75 00 	sts	0x0075, r24
 17c:	20 91 7e 00 	lds	r18, 0x007E
 180:	82 2f       	mov	r24, r18
 182:	6a e0       	ldi	r22, 0x0A	; 10
 184:	8a d4       	rcall	.+2324   	; 0xa9a <__udivmodqi4>
 186:	80 93 76 00 	sts	0x0076, r24
 18a:	82 2f       	mov	r24, r18
 18c:	86 d4       	rcall	.+2316   	; 0xa9a <__udivmodqi4>
 18e:	90 93 77 00 	sts	0x0077, r25
 192:	80 91 78 00 	lds	r24, 0x0078
 196:	80 93 72 00 	sts	0x0072, r24
 19a:	8c e0       	ldi	r24, 0x0C	; 12
 19c:	80 93 73 00 	sts	0x0073, r24
 1a0:	8d e0       	ldi	r24, 0x0D	; 13
 1a2:	80 93 74 00 	sts	0x0074, r24
 1a6:	08 95       	ret

000001a8 <__vector_1>:
 1a8:	1f 92       	push	r1
 1aa:	0f 92       	push	r0
 1ac:	0f b6       	in	r0, 0x3f	; 63
 1ae:	0f 92       	push	r0
 1b0:	11 24       	eor	r1, r1
 1b2:	8f 93       	push	r24
 1b4:	81 e0       	ldi	r24, 0x01	; 1
 1b6:	80 93 61 00 	sts	0x0061, r24
 1ba:	80 91 80 00 	lds	r24, 0x0080
 1be:	8f 5f       	subi	r24, 0xFF	; 255
 1c0:	80 93 80 00 	sts	0x0080, r24
 1c4:	80 91 80 00 	lds	r24, 0x0080
 1c8:	8c 33       	cpi	r24, 0x3C	; 60
 1ca:	11 f4       	brne	.+4      	; 0x1d0 <__vector_1+0x28>
 1cc:	10 92 80 00 	sts	0x0080, r1
 1d0:	8f 91       	pop	r24
 1d2:	0f 90       	pop	r0
 1d4:	0f be       	out	0x3f, r0	; 63
 1d6:	0f 90       	pop	r0
 1d8:	1f 90       	pop	r1
 1da:	18 95       	reti

000001dc <main>:
 1dc:	cf 93       	push	r28
 1de:	df 93       	push	r29
 1e0:	8f ef       	ldi	r24, 0xFF	; 255
 1e2:	84 bb       	out	0x14, r24	; 20
 1e4:	44 df       	rcall	.-376    	; 0x6e <d_led_init>
 1e6:	ee d0       	rcall	.+476    	; 0x3c4 <i2c_init>
 1e8:	57 d3       	rcall	.+1710   	; 0x898 <search_sensors>
 1ea:	80 93 7f 00 	sts	0x007F, r24
 1ee:	a0 98       	cbi	0x14, 0	; 20
 1f0:	a1 98       	cbi	0x14, 1	; 20
 1f2:	a8 9a       	sbi	0x15, 0	; 21
 1f4:	a9 9a       	sbi	0x15, 1	; 21
 1f6:	a2 9a       	sbi	0x14, 2	; 20
 1f8:	aa 98       	cbi	0x15, 2	; 21
 1fa:	85 b7       	in	r24, 0x35	; 53
 1fc:	82 60       	ori	r24, 0x02	; 2
 1fe:	85 bf       	out	0x35, r24	; 53
 200:	8b b7       	in	r24, 0x3b	; 59
 202:	80 64       	ori	r24, 0x40	; 64
 204:	8b bf       	out	0x3b, r24	; 59
 206:	8a 98       	cbi	0x11, 2	; 17
 208:	92 9a       	sbi	0x12, 2	; 18
 20a:	78 94       	sei
 20c:	c0 e0       	ldi	r28, 0x00	; 0
 20e:	d8 ed       	ldi	r29, 0xD8	; 216
 210:	80 91 61 00 	lds	r24, 0x0061
 214:	81 30       	cpi	r24, 0x01	; 1
 216:	29 f4       	brne	.+10     	; 0x222 <main+0x46>
 218:	f8 94       	cli
 21a:	43 d1       	rcall	.+646    	; 0x4a2 <odczytczasu>
 21c:	10 92 61 00 	sts	0x0061, r1
 220:	78 94       	sei
 222:	98 99       	sbic	0x13, 0	; 19
 224:	05 c0       	rjmp	.+10     	; 0x230 <main+0x54>
 226:	98 9b       	sbis	0x13, 0	; 19
 228:	88 d1       	rcall	.+784    	; 0x53a <zapisminuty1>
 22a:	ce 01       	movw	r24, r28
 22c:	01 97       	sbiw	r24, 0x01	; 1
 22e:	f1 f7       	brne	.-4      	; 0x22c <main+0x50>
 230:	99 99       	sbic	0x13, 1	; 19
 232:	05 c0       	rjmp	.+10     	; 0x23e <main+0x62>
 234:	99 9b       	sbis	0x13, 1	; 19
 236:	5e d1       	rcall	.+700    	; 0x4f4 <zapisgodziny1>
 238:	ce 01       	movw	r24, r28
 23a:	01 97       	sbiw	r24, 0x01	; 1
 23c:	f1 f7       	brne	.-4      	; 0x23a <main+0x5e>
 23e:	80 91 80 00 	lds	r24, 0x0080
 242:	80 91 80 00 	lds	r24, 0x0080
 246:	88 32       	cpi	r24, 0x28	; 40
 248:	20 f0       	brcs	.+8      	; 0x252 <main+0x76>
 24a:	80 91 80 00 	lds	r24, 0x0080
 24e:	83 33       	cpi	r24, 0x33	; 51
 250:	58 f1       	brcs	.+86     	; 0x2a8 <main+0xcc>
 252:	aa 98       	cbi	0x15, 2	; 21
 254:	80 91 7d 00 	lds	r24, 0x007D
 258:	1a d1       	rcall	.+564    	; 0x48e <bcd2dec>
 25a:	6a e0       	ldi	r22, 0x0A	; 10
 25c:	1e d4       	rcall	.+2108   	; 0xa9a <__udivmodqi4>
 25e:	80 93 75 00 	sts	0x0075, r24
 262:	80 91 7d 00 	lds	r24, 0x007D
 266:	13 d1       	rcall	.+550    	; 0x48e <bcd2dec>
 268:	6a e0       	ldi	r22, 0x0A	; 10
 26a:	17 d4       	rcall	.+2094   	; 0xa9a <__udivmodqi4>
 26c:	90 93 76 00 	sts	0x0076, r25
 270:	80 91 7c 00 	lds	r24, 0x007C
 274:	0c d1       	rcall	.+536    	; 0x48e <bcd2dec>
 276:	6a e0       	ldi	r22, 0x0A	; 10
 278:	10 d4       	rcall	.+2080   	; 0xa9a <__udivmodqi4>
 27a:	80 93 77 00 	sts	0x0077, r24
 27e:	80 91 7c 00 	lds	r24, 0x007C
 282:	05 d1       	rcall	.+522    	; 0x48e <bcd2dec>
 284:	6a e0       	ldi	r22, 0x0A	; 10
 286:	09 d4       	rcall	.+2066   	; 0xa9a <__udivmodqi4>
 288:	90 93 72 00 	sts	0x0072, r25
 28c:	80 91 7b 00 	lds	r24, 0x007B
 290:	fe d0       	rcall	.+508    	; 0x48e <bcd2dec>
 292:	6a e0       	ldi	r22, 0x0A	; 10
 294:	02 d4       	rcall	.+2052   	; 0xa9a <__udivmodqi4>
 296:	80 93 73 00 	sts	0x0073, r24
 29a:	80 91 7b 00 	lds	r24, 0x007B
 29e:	f7 d0       	rcall	.+494    	; 0x48e <bcd2dec>
 2a0:	6a e0       	ldi	r22, 0x0A	; 10
 2a2:	fb d3       	rcall	.+2038   	; 0xa9a <__udivmodqi4>
 2a4:	90 93 74 00 	sts	0x0074, r25
 2a8:	80 91 80 00 	lds	r24, 0x0080
 2ac:	88 32       	cpi	r24, 0x28	; 40
 2ae:	21 f4       	brne	.+8      	; 0x2b8 <main+0xdc>
 2b0:	81 e0       	ldi	r24, 0x01	; 1
 2b2:	60 e0       	ldi	r22, 0x00	; 0
 2b4:	70 e0       	ldi	r23, 0x00	; 0
 2b6:	b0 d2       	rcall	.+1376   	; 0x818 <DS18X20_start_meas>
 2b8:	80 91 80 00 	lds	r24, 0x0080
 2bc:	89 32       	cpi	r24, 0x29	; 41
 2be:	08 f4       	brcc	.+2      	; 0x2c2 <main+0xe6>
 2c0:	a7 cf       	rjmp	.-178    	; 0x210 <main+0x34>
 2c2:	80 91 80 00 	lds	r24, 0x0080
 2c6:	83 33       	cpi	r24, 0x33	; 51
 2c8:	08 f0       	brcs	.+2      	; 0x2cc <main+0xf0>
 2ca:	a2 cf       	rjmp	.-188    	; 0x210 <main+0x34>
 2cc:	81 e8       	ldi	r24, 0x81	; 129
 2ce:	90 e0       	ldi	r25, 0x00	; 0
 2d0:	69 e7       	ldi	r22, 0x79	; 121
 2d2:	70 e0       	ldi	r23, 0x00	; 0
 2d4:	4e e7       	ldi	r20, 0x7E	; 126
 2d6:	50 e0       	ldi	r21, 0x00	; 0
 2d8:	28 e7       	ldi	r18, 0x78	; 120
 2da:	30 e0       	ldi	r19, 0x00	; 0
 2dc:	47 d2       	rcall	.+1166   	; 0x76c <DS18X20_read_meas>
 2de:	88 23       	and	r24, r24
 2e0:	09 f0       	breq	.+2      	; 0x2e4 <main+0x108>
 2e2:	96 cf       	rjmp	.-212    	; 0x210 <main+0x34>
 2e4:	40 df       	rcall	.-384    	; 0x166 <display_temp>
 2e6:	94 cf       	rjmp	.-216    	; 0x210 <main+0x34>

000002e8 <I2C_START>:
 2e8:	ac 98       	cbi	0x15, 4	; 21
 2ea:	81 e0       	ldi	r24, 0x01	; 1
 2ec:	8a 95       	dec	r24
 2ee:	f1 f7       	brne	.-4      	; 0x2ec <I2C_START+0x4>
 2f0:	ad 98       	cbi	0x15, 5	; 21
 2f2:	08 95       	ret

000002f4 <I2C_REP_START>:
 2f4:	82 e0       	ldi	r24, 0x02	; 2
 2f6:	8a 95       	dec	r24
 2f8:	f1 f7       	brne	.-4      	; 0x2f6 <I2C_REP_START+0x2>
 2fa:	ad 9a       	sbi	0x15, 5	; 21
 2fc:	ac 98       	cbi	0x15, 4	; 21
 2fe:	81 e0       	ldi	r24, 0x01	; 1
 300:	8a 95       	dec	r24
 302:	f1 f7       	brne	.-4      	; 0x300 <I2C_REP_START+0xc>
 304:	ad 98       	cbi	0x15, 5	; 21
 306:	08 95       	ret

00000308 <I2C_STOP>:
 308:	ac 98       	cbi	0x15, 4	; 21
 30a:	82 e0       	ldi	r24, 0x02	; 2
 30c:	98 2f       	mov	r25, r24
 30e:	9a 95       	dec	r25
 310:	f1 f7       	brne	.-4      	; 0x30e <I2C_STOP+0x6>
 312:	ad 9a       	sbi	0x15, 5	; 21
 314:	91 e0       	ldi	r25, 0x01	; 1
 316:	9a 95       	dec	r25
 318:	f1 f7       	brne	.-4      	; 0x316 <I2C_STOP+0xe>
 31a:	ac 9a       	sbi	0x15, 4	; 21
 31c:	8a 95       	dec	r24
 31e:	f1 f7       	brne	.-4      	; 0x31c <I2C_STOP+0x14>
 320:	08 95       	ret

00000322 <i2cPutbyte>:
 322:	58 2f       	mov	r21, r24
 324:	90 e8       	ldi	r25, 0x80	; 128
 326:	20 e0       	ldi	r18, 0x00	; 0
 328:	30 e0       	ldi	r19, 0x00	; 0
 32a:	62 e0       	ldi	r22, 0x02	; 2
 32c:	89 2f       	mov	r24, r25
 32e:	85 23       	and	r24, r21
 330:	11 f0       	breq	.+4      	; 0x336 <i2cPutbyte+0x14>
 332:	ac 9a       	sbi	0x15, 4	; 21
 334:	01 c0       	rjmp	.+2      	; 0x338 <i2cPutbyte+0x16>
 336:	ac 98       	cbi	0x15, 4	; 21
 338:	42 e0       	ldi	r20, 0x02	; 2
 33a:	86 2f       	mov	r24, r22
 33c:	8a 95       	dec	r24
 33e:	f1 f7       	brne	.-4      	; 0x33c <i2cPutbyte+0x1a>
 340:	ad 9a       	sbi	0x15, 5	; 21
 342:	86 2f       	mov	r24, r22
 344:	8a 95       	dec	r24
 346:	f1 f7       	brne	.-4      	; 0x344 <i2cPutbyte+0x22>
 348:	ad 98       	cbi	0x15, 5	; 21
 34a:	96 95       	lsr	r25
 34c:	2f 5f       	subi	r18, 0xFF	; 255
 34e:	3f 4f       	sbci	r19, 0xFF	; 255
 350:	28 30       	cpi	r18, 0x08	; 8
 352:	31 05       	cpc	r19, r1
 354:	59 f7       	brne	.-42     	; 0x32c <i2cPutbyte+0xa>
 356:	ac 9a       	sbi	0x15, 4	; 21
 358:	a4 98       	cbi	0x14, 4	; 20
 35a:	84 2f       	mov	r24, r20
 35c:	8a 95       	dec	r24
 35e:	f1 f7       	brne	.-4      	; 0x35c <i2cPutbyte+0x3a>
 360:	ad 9a       	sbi	0x15, 5	; 21
 362:	83 b3       	in	r24, 0x13	; 19
 364:	94 2f       	mov	r25, r20
 366:	9a 95       	dec	r25
 368:	f1 f7       	brne	.-4      	; 0x366 <i2cPutbyte+0x44>
 36a:	ad 98       	cbi	0x15, 5	; 21
 36c:	a4 9a       	sbi	0x14, 4	; 20
 36e:	94 2f       	mov	r25, r20
 370:	9a 95       	dec	r25
 372:	f1 f7       	brne	.-4      	; 0x370 <i2cPutbyte+0x4e>
 374:	82 95       	swap	r24
 376:	8f 70       	andi	r24, 0x0F	; 15
 378:	80 95       	com	r24
 37a:	81 70       	andi	r24, 0x01	; 1
 37c:	08 95       	ret

0000037e <i2cGetbyte>:
 37e:	ac 9a       	sbi	0x15, 4	; 21
 380:	a4 98       	cbi	0x14, 4	; 20
 382:	28 e0       	ldi	r18, 0x08	; 8
 384:	30 e0       	ldi	r19, 0x00	; 0
 386:	42 e0       	ldi	r20, 0x02	; 2
 388:	94 2f       	mov	r25, r20
 38a:	9a 95       	dec	r25
 38c:	f1 f7       	brne	.-4      	; 0x38a <i2cGetbyte+0xc>
 38e:	ad 9a       	sbi	0x15, 5	; 21
 390:	33 0f       	add	r19, r19
 392:	9c 99       	sbic	0x13, 4	; 19
 394:	31 60       	ori	r19, 0x01	; 1
 396:	94 2f       	mov	r25, r20
 398:	9a 95       	dec	r25
 39a:	f1 f7       	brne	.-4      	; 0x398 <i2cGetbyte+0x1a>
 39c:	ad 98       	cbi	0x15, 5	; 21
 39e:	21 50       	subi	r18, 0x01	; 1
 3a0:	99 f7       	brne	.-26     	; 0x388 <i2cGetbyte+0xa>
 3a2:	a4 9a       	sbi	0x14, 4	; 20
 3a4:	88 23       	and	r24, r24
 3a6:	11 f0       	breq	.+4      	; 0x3ac <i2cGetbyte+0x2e>
 3a8:	ac 98       	cbi	0x15, 4	; 21
 3aa:	01 c0       	rjmp	.+2      	; 0x3ae <i2cGetbyte+0x30>
 3ac:	ac 9a       	sbi	0x15, 4	; 21
 3ae:	82 e0       	ldi	r24, 0x02	; 2
 3b0:	98 2f       	mov	r25, r24
 3b2:	9a 95       	dec	r25
 3b4:	f1 f7       	brne	.-4      	; 0x3b2 <i2cGetbyte+0x34>
 3b6:	ad 9a       	sbi	0x15, 5	; 21
 3b8:	8a 95       	dec	r24
 3ba:	f1 f7       	brne	.-4      	; 0x3b8 <i2cGetbyte+0x3a>
 3bc:	ad 98       	cbi	0x15, 5	; 21
 3be:	ac 9a       	sbi	0x15, 4	; 21
 3c0:	83 2f       	mov	r24, r19
 3c2:	08 95       	ret

000003c4 <i2c_init>:
 3c4:	a4 9a       	sbi	0x14, 4	; 20
 3c6:	a5 9a       	sbi	0x14, 5	; 20
 3c8:	ac 9a       	sbi	0x15, 4	; 21
 3ca:	ad 9a       	sbi	0x15, 5	; 21
 3cc:	08 95       	ret

000003ce <I2C_write_buf>:
 3ce:	0f 93       	push	r16
 3d0:	1f 93       	push	r17
 3d2:	cf 93       	push	r28
 3d4:	df 93       	push	r29
 3d6:	16 2f       	mov	r17, r22
 3d8:	04 2f       	mov	r16, r20
 3da:	e9 01       	movw	r28, r18
 3dc:	ac 98       	cbi	0x15, 4	; 21
 3de:	91 e0       	ldi	r25, 0x01	; 1
 3e0:	9a 95       	dec	r25
 3e2:	f1 f7       	brne	.-4      	; 0x3e0 <I2C_write_buf+0x12>
 3e4:	ad 98       	cbi	0x15, 5	; 21
 3e6:	9d df       	rcall	.-198    	; 0x322 <i2cPutbyte>
 3e8:	81 2f       	mov	r24, r17
 3ea:	9b df       	rcall	.-202    	; 0x322 <i2cPutbyte>
 3ec:	03 c0       	rjmp	.+6      	; 0x3f4 <I2C_write_buf+0x26>
 3ee:	89 91       	ld	r24, Y+
 3f0:	98 df       	rcall	.-208    	; 0x322 <i2cPutbyte>
 3f2:	01 50       	subi	r16, 0x01	; 1
 3f4:	00 23       	and	r16, r16
 3f6:	d9 f7       	brne	.-10     	; 0x3ee <I2C_write_buf+0x20>
 3f8:	87 df       	rcall	.-242    	; 0x308 <I2C_STOP>
 3fa:	df 91       	pop	r29
 3fc:	cf 91       	pop	r28
 3fe:	1f 91       	pop	r17
 400:	0f 91       	pop	r16
 402:	08 95       	ret

00000404 <godzina>:
 404:	1f 93       	push	r17
 406:	18 2f       	mov	r17, r24
 408:	ac 98       	cbi	0x15, 4	; 21
 40a:	81 e0       	ldi	r24, 0x01	; 1
 40c:	8a 95       	dec	r24
 40e:	f1 f7       	brne	.-4      	; 0x40c <godzina+0x8>
 410:	ad 98       	cbi	0x15, 5	; 21
 412:	82 ea       	ldi	r24, 0xA2	; 162
 414:	86 df       	rcall	.-244    	; 0x322 <i2cPutbyte>
 416:	84 e0       	ldi	r24, 0x04	; 4
 418:	84 df       	rcall	.-248    	; 0x322 <i2cPutbyte>
 41a:	81 2f       	mov	r24, r17
 41c:	82 df       	rcall	.-252    	; 0x322 <i2cPutbyte>
 41e:	74 df       	rcall	.-280    	; 0x308 <I2C_STOP>
 420:	1f 91       	pop	r17
 422:	08 95       	ret

00000424 <I2C_read_buf>:
 424:	ff 92       	push	r15
 426:	0f 93       	push	r16
 428:	1f 93       	push	r17
 42a:	cf 93       	push	r28
 42c:	df 93       	push	r29
 42e:	18 2f       	mov	r17, r24
 430:	06 2f       	mov	r16, r22
 432:	f4 2e       	mov	r15, r20
 434:	e9 01       	movw	r28, r18
 436:	ac 98       	cbi	0x15, 4	; 21
 438:	81 e0       	ldi	r24, 0x01	; 1
 43a:	8a 95       	dec	r24
 43c:	f1 f7       	brne	.-4      	; 0x43a <I2C_read_buf+0x16>
 43e:	ad 98       	cbi	0x15, 5	; 21
 440:	81 2f       	mov	r24, r17
 442:	6f df       	rcall	.-290    	; 0x322 <i2cPutbyte>
 444:	80 2f       	mov	r24, r16
 446:	6d df       	rcall	.-294    	; 0x322 <i2cPutbyte>
 448:	55 df       	rcall	.-342    	; 0x2f4 <I2C_REP_START>
 44a:	81 2f       	mov	r24, r17
 44c:	81 60       	ori	r24, 0x01	; 1
 44e:	69 df       	rcall	.-302    	; 0x322 <i2cPutbyte>
 450:	06 c0       	rjmp	.+12     	; 0x45e <I2C_read_buf+0x3a>
 452:	fa 94       	dec	r15
 454:	80 e0       	ldi	r24, 0x00	; 0
 456:	09 f0       	breq	.+2      	; 0x45a <I2C_read_buf+0x36>
 458:	81 e0       	ldi	r24, 0x01	; 1
 45a:	91 df       	rcall	.-222    	; 0x37e <i2cGetbyte>
 45c:	89 93       	st	Y+, r24
 45e:	ff 20       	and	r15, r15
 460:	c1 f7       	brne	.-16     	; 0x452 <I2C_read_buf+0x2e>
 462:	52 df       	rcall	.-348    	; 0x308 <I2C_STOP>
 464:	df 91       	pop	r29
 466:	cf 91       	pop	r28
 468:	1f 91       	pop	r17
 46a:	0f 91       	pop	r16
 46c:	ff 90       	pop	r15
 46e:	08 95       	ret

00000470 <dec2bcd>:
 470:	48 2f       	mov	r20, r24
 472:	6a e0       	ldi	r22, 0x0A	; 10
 474:	12 d3       	rcall	.+1572   	; 0xa9a <__udivmodqi4>
 476:	28 2f       	mov	r18, r24
 478:	30 e0       	ldi	r19, 0x00	; 0
 47a:	84 e0       	ldi	r24, 0x04	; 4
 47c:	22 0f       	add	r18, r18
 47e:	33 1f       	adc	r19, r19
 480:	8a 95       	dec	r24
 482:	e1 f7       	brne	.-8      	; 0x47c <dec2bcd+0xc>
 484:	84 2f       	mov	r24, r20
 486:	09 d3       	rcall	.+1554   	; 0xa9a <__udivmodqi4>
 488:	89 2f       	mov	r24, r25
 48a:	82 2b       	or	r24, r18
 48c:	08 95       	ret

0000048e <bcd2dec>:
 48e:	28 2f       	mov	r18, r24
 490:	22 95       	swap	r18
 492:	2f 70       	andi	r18, 0x0F	; 15
 494:	9a e0       	ldi	r25, 0x0A	; 10
 496:	29 9f       	mul	r18, r25
 498:	90 01       	movw	r18, r0
 49a:	11 24       	eor	r1, r1
 49c:	8f 70       	andi	r24, 0x0F	; 15
 49e:	82 0f       	add	r24, r18
 4a0:	08 95       	ret

000004a2 <odczytczasu>:
 4a2:	82 ea       	ldi	r24, 0xA2	; 162
 4a4:	61 e0       	ldi	r22, 0x01	; 1
 4a6:	44 e0       	ldi	r20, 0x04	; 4
 4a8:	2a e7       	ldi	r18, 0x7A	; 122
 4aa:	30 e0       	ldi	r19, 0x00	; 0
 4ac:	bb df       	rcall	.-138    	; 0x424 <I2C_read_buf>
 4ae:	08 95       	ret

000004b0 <zapisgodziny>:
 4b0:	1f 93       	push	r17
 4b2:	18 2f       	mov	r17, r24
 4b4:	ac 98       	cbi	0x15, 4	; 21
 4b6:	81 e0       	ldi	r24, 0x01	; 1
 4b8:	8a 95       	dec	r24
 4ba:	f1 f7       	brne	.-4      	; 0x4b8 <zapisgodziny+0x8>
 4bc:	ad 98       	cbi	0x15, 5	; 21
 4be:	82 ea       	ldi	r24, 0xA2	; 162
 4c0:	30 df       	rcall	.-416    	; 0x322 <i2cPutbyte>
 4c2:	84 e0       	ldi	r24, 0x04	; 4
 4c4:	2e df       	rcall	.-420    	; 0x322 <i2cPutbyte>
 4c6:	81 2f       	mov	r24, r17
 4c8:	d3 df       	rcall	.-90     	; 0x470 <dec2bcd>
 4ca:	2b df       	rcall	.-426    	; 0x322 <i2cPutbyte>
 4cc:	1d df       	rcall	.-454    	; 0x308 <I2C_STOP>
 4ce:	1f 91       	pop	r17
 4d0:	08 95       	ret

000004d2 <zapisminuty>:
 4d2:	1f 93       	push	r17
 4d4:	18 2f       	mov	r17, r24
 4d6:	ac 98       	cbi	0x15, 4	; 21
 4d8:	81 e0       	ldi	r24, 0x01	; 1
 4da:	8a 95       	dec	r24
 4dc:	f1 f7       	brne	.-4      	; 0x4da <zapisminuty+0x8>
 4de:	ad 98       	cbi	0x15, 5	; 21
 4e0:	82 ea       	ldi	r24, 0xA2	; 162
 4e2:	1f df       	rcall	.-450    	; 0x322 <i2cPutbyte>
 4e4:	83 e0       	ldi	r24, 0x03	; 3
 4e6:	1d df       	rcall	.-454    	; 0x322 <i2cPutbyte>
 4e8:	81 2f       	mov	r24, r17
 4ea:	c2 df       	rcall	.-124    	; 0x470 <dec2bcd>
 4ec:	1a df       	rcall	.-460    	; 0x322 <i2cPutbyte>
 4ee:	0c df       	rcall	.-488    	; 0x308 <I2C_STOP>
 4f0:	1f 91       	pop	r17
 4f2:	08 95       	ret

000004f4 <zapisgodziny1>:
 4f4:	80 91 7d 00 	lds	r24, 0x007D
 4f8:	38 2f       	mov	r19, r24
 4fa:	3f 70       	andi	r19, 0x0F	; 15
 4fc:	3f 5f       	subi	r19, 0xFF	; 255
 4fe:	82 95       	swap	r24
 500:	8f 70       	andi	r24, 0x0F	; 15
 502:	2a e0       	ldi	r18, 0x0A	; 10
 504:	82 9f       	mul	r24, r18
 506:	c0 01       	movw	r24, r0
 508:	11 24       	eor	r1, r1
 50a:	38 0f       	add	r19, r24
 50c:	38 31       	cpi	r19, 0x18	; 24
 50e:	09 f4       	brne	.+2      	; 0x512 <zapisgodziny1+0x1e>
 510:	30 e0       	ldi	r19, 0x00	; 0
 512:	83 2f       	mov	r24, r19
 514:	cd df       	rcall	.-102    	; 0x4b0 <zapisgodziny>
 516:	08 95       	ret

00000518 <zapissekundy>:
 518:	1f 93       	push	r17
 51a:	18 2f       	mov	r17, r24
 51c:	ac 98       	cbi	0x15, 4	; 21
 51e:	81 e0       	ldi	r24, 0x01	; 1
 520:	8a 95       	dec	r24
 522:	f1 f7       	brne	.-4      	; 0x520 <zapissekundy+0x8>
 524:	ad 98       	cbi	0x15, 5	; 21
 526:	82 ea       	ldi	r24, 0xA2	; 162
 528:	fc de       	rcall	.-520    	; 0x322 <i2cPutbyte>
 52a:	82 e0       	ldi	r24, 0x02	; 2
 52c:	fa de       	rcall	.-524    	; 0x322 <i2cPutbyte>
 52e:	81 2f       	mov	r24, r17
 530:	9f df       	rcall	.-194    	; 0x470 <dec2bcd>
 532:	f7 de       	rcall	.-530    	; 0x322 <i2cPutbyte>
 534:	e9 de       	rcall	.-558    	; 0x308 <I2C_STOP>
 536:	1f 91       	pop	r17
 538:	08 95       	ret

0000053a <zapisminuty1>:
 53a:	80 91 7c 00 	lds	r24, 0x007C
 53e:	38 2f       	mov	r19, r24
 540:	3f 70       	andi	r19, 0x0F	; 15
 542:	3f 5f       	subi	r19, 0xFF	; 255
 544:	82 95       	swap	r24
 546:	8f 70       	andi	r24, 0x0F	; 15
 548:	2a e0       	ldi	r18, 0x0A	; 10
 54a:	82 9f       	mul	r24, r18
 54c:	c0 01       	movw	r24, r0
 54e:	11 24       	eor	r1, r1
 550:	38 0f       	add	r19, r24
 552:	3c 33       	cpi	r19, 0x3C	; 60
 554:	09 f4       	brne	.+2      	; 0x558 <zapisminuty1+0x1e>
 556:	30 e0       	ldi	r19, 0x00	; 0
 558:	83 2f       	mov	r24, r19
 55a:	bb df       	rcall	.-138    	; 0x4d2 <zapisminuty>
 55c:	80 e0       	ldi	r24, 0x00	; 0
 55e:	dc df       	rcall	.-72     	; 0x518 <zapissekundy>
 560:	08 95       	ret

00000562 <crc8>:
 562:	dc 01       	movw	r26, r24
 564:	20 e0       	ldi	r18, 0x00	; 0
 566:	40 e0       	ldi	r20, 0x00	; 0
 568:	50 e0       	ldi	r21, 0x00	; 0
 56a:	98 e1       	ldi	r25, 0x18	; 24
 56c:	15 c0       	rjmp	.+42     	; 0x598 <crc8+0x36>
 56e:	fd 01       	movw	r30, r26
 570:	e4 0f       	add	r30, r20
 572:	f5 1f       	adc	r31, r21
 574:	e0 81       	ld	r30, Z
 576:	38 e0       	ldi	r19, 0x08	; 8
 578:	8e 2f       	mov	r24, r30
 57a:	82 27       	eor	r24, r18
 57c:	f8 2f       	mov	r31, r24
 57e:	f1 70       	andi	r31, 0x01	; 1
 580:	80 fd       	sbrc	r24, 0
 582:	29 27       	eor	r18, r25
 584:	26 95       	lsr	r18
 586:	f1 30       	cpi	r31, 0x01	; 1
 588:	09 f4       	brne	.+2      	; 0x58c <crc8+0x2a>
 58a:	20 68       	ori	r18, 0x80	; 128
 58c:	31 50       	subi	r19, 0x01	; 1
 58e:	11 f0       	breq	.+4      	; 0x594 <crc8+0x32>
 590:	e6 95       	lsr	r30
 592:	f2 cf       	rjmp	.-28     	; 0x578 <crc8+0x16>
 594:	4f 5f       	subi	r20, 0xFF	; 255
 596:	5f 4f       	sbci	r21, 0xFF	; 255
 598:	46 17       	cp	r20, r22
 59a:	57 07       	cpc	r21, r23
 59c:	41 f7       	brne	.-48     	; 0x56e <crc8+0xc>
 59e:	82 2f       	mov	r24, r18
 5a0:	08 95       	ret

000005a2 <DS18X20_meas_to_cel>:
 5a2:	af 92       	push	r10
 5a4:	bf 92       	push	r11
 5a6:	df 92       	push	r13
 5a8:	ef 92       	push	r14
 5aa:	ff 92       	push	r15
 5ac:	0f 93       	push	r16
 5ae:	1f 93       	push	r17
 5b0:	df 93       	push	r29
 5b2:	cf 93       	push	r28
 5b4:	cd b7       	in	r28, 0x3d	; 61
 5b6:	de b7       	in	r29, 0x3e	; 62
 5b8:	60 97       	sbiw	r28, 0x10	; 16
 5ba:	0f b6       	in	r0, 0x3f	; 63
 5bc:	f8 94       	cli
 5be:	de bf       	out	0x3e, r29	; 62
 5c0:	0f be       	out	0x3f, r0	; 63
 5c2:	cd bf       	out	0x3d, r28	; 61
 5c4:	d8 2e       	mov	r13, r24
 5c6:	7a 01       	movw	r14, r20
 5c8:	59 01       	movw	r10, r18
 5ca:	de 01       	movw	r26, r28
 5cc:	11 96       	adiw	r26, 0x01	; 1
 5ce:	e2 e6       	ldi	r30, 0x62	; 98
 5d0:	f0 e0       	ldi	r31, 0x00	; 0
 5d2:	80 e1       	ldi	r24, 0x10	; 16
 5d4:	01 90       	ld	r0, Z+
 5d6:	0d 92       	st	X+, r0
 5d8:	81 50       	subi	r24, 0x01	; 1
 5da:	e1 f7       	brne	.-8      	; 0x5d4 <DS18X20_meas_to_cel+0x32>
 5dc:	fb 01       	movw	r30, r22
 5de:	80 81       	ld	r24, Z
 5e0:	48 2f       	mov	r20, r24
 5e2:	50 e0       	ldi	r21, 0x00	; 0
 5e4:	91 81       	ldd	r25, Z+1	; 0x01
 5e6:	80 e0       	ldi	r24, 0x00	; 0
 5e8:	48 2b       	or	r20, r24
 5ea:	59 2b       	or	r21, r25
 5ec:	f0 e1       	ldi	r31, 0x10	; 16
 5ee:	df 16       	cp	r13, r31
 5f0:	79 f4       	brne	.+30     	; 0x610 <DS18X20_meas_to_cel+0x6e>
 5f2:	ca 01       	movw	r24, r20
 5f4:	8e 7f       	andi	r24, 0xFE	; 254
 5f6:	33 e0       	ldi	r19, 0x03	; 3
 5f8:	88 0f       	add	r24, r24
 5fa:	99 1f       	adc	r25, r25
 5fc:	3a 95       	dec	r19
 5fe:	e1 f7       	brne	.-8      	; 0x5f8 <DS18X20_meas_to_cel+0x56>
 600:	fb 01       	movw	r30, r22
 602:	26 81       	ldd	r18, Z+6	; 0x06
 604:	4c e0       	ldi	r20, 0x0C	; 12
 606:	50 e0       	ldi	r21, 0x00	; 0
 608:	42 1b       	sub	r20, r18
 60a:	51 09       	sbc	r21, r1
 60c:	48 0f       	add	r20, r24
 60e:	59 1f       	adc	r21, r25
 610:	57 ff       	sbrs	r21, 7
 612:	07 c0       	rjmp	.+14     	; 0x622 <DS18X20_meas_to_cel+0x80>
 614:	81 e0       	ldi	r24, 0x01	; 1
 616:	f7 01       	movw	r30, r14
 618:	80 83       	st	Z, r24
 61a:	50 95       	com	r21
 61c:	41 95       	neg	r20
 61e:	5f 4f       	sbci	r21, 0xFF	; 255
 620:	02 c0       	rjmp	.+4      	; 0x626 <DS18X20_meas_to_cel+0x84>
 622:	f7 01       	movw	r30, r14
 624:	10 82       	st	Z, r1
 626:	f8 e2       	ldi	r31, 0x28	; 40
 628:	df 16       	cp	r13, r31
 62a:	99 f4       	brne	.+38     	; 0x652 <DS18X20_meas_to_cel+0xb0>
 62c:	fb 01       	movw	r30, r22
 62e:	84 81       	ldd	r24, Z+4	; 0x04
 630:	68 2f       	mov	r22, r24
 632:	70 e0       	ldi	r23, 0x00	; 0
 634:	cb 01       	movw	r24, r22
 636:	80 76       	andi	r24, 0x60	; 96
 638:	90 70       	andi	r25, 0x00	; 0
 63a:	80 36       	cpi	r24, 0x60	; 96
 63c:	91 05       	cpc	r25, r1
 63e:	49 f0       	breq	.+18     	; 0x652 <DS18X20_meas_to_cel+0xb0>
 640:	66 ff       	sbrs	r22, 6
 642:	02 c0       	rjmp	.+4      	; 0x648 <DS18X20_meas_to_cel+0xa6>
 644:	4e 7f       	andi	r20, 0xFE	; 254
 646:	05 c0       	rjmp	.+10     	; 0x652 <DS18X20_meas_to_cel+0xb0>
 648:	65 ff       	sbrs	r22, 5
 64a:	02 c0       	rjmp	.+4      	; 0x650 <DS18X20_meas_to_cel+0xae>
 64c:	4c 7f       	andi	r20, 0xFC	; 252
 64e:	01 c0       	rjmp	.+2      	; 0x652 <DS18X20_meas_to_cel+0xb0>
 650:	48 7f       	andi	r20, 0xF8	; 248
 652:	ca 01       	movw	r24, r20
 654:	24 e0       	ldi	r18, 0x04	; 4
 656:	96 95       	lsr	r25
 658:	87 95       	ror	r24
 65a:	2a 95       	dec	r18
 65c:	e1 f7       	brne	.-8      	; 0x656 <DS18X20_meas_to_cel+0xb4>
 65e:	f5 01       	movw	r30, r10
 660:	80 83       	st	Z, r24
 662:	84 2f       	mov	r24, r20
 664:	8f 70       	andi	r24, 0x0F	; 15
 666:	fe 01       	movw	r30, r28
 668:	e8 0f       	add	r30, r24
 66a:	f1 1d       	adc	r31, r1
 66c:	81 81       	ldd	r24, Z+1	; 0x01
 66e:	f8 01       	movw	r30, r16
 670:	80 83       	st	Z, r24
 672:	80 e0       	ldi	r24, 0x00	; 0
 674:	60 96       	adiw	r28, 0x10	; 16
 676:	0f b6       	in	r0, 0x3f	; 63
 678:	f8 94       	cli
 67a:	de bf       	out	0x3e, r29	; 62
 67c:	0f be       	out	0x3f, r0	; 63
 67e:	cd bf       	out	0x3d, r28	; 61
 680:	cf 91       	pop	r28
 682:	df 91       	pop	r29
 684:	1f 91       	pop	r17
 686:	0f 91       	pop	r16
 688:	ff 90       	pop	r15
 68a:	ef 90       	pop	r14
 68c:	df 90       	pop	r13
 68e:	bf 90       	pop	r11
 690:	af 90       	pop	r10
 692:	08 95       	ret

00000694 <DS18X20_temp_cmp>:
 694:	88 23       	and	r24, r24
 696:	19 f0       	breq	.+6      	; 0x69e <DS18X20_temp_cmp+0xa>
 698:	70 95       	com	r23
 69a:	61 95       	neg	r22
 69c:	7f 4f       	sbci	r23, 0xFF	; 255
 69e:	44 23       	and	r20, r20
 6a0:	19 f0       	breq	.+6      	; 0x6a8 <DS18X20_temp_cmp+0x14>
 6a2:	30 95       	com	r19
 6a4:	21 95       	neg	r18
 6a6:	3f 4f       	sbci	r19, 0xFF	; 255
 6a8:	62 17       	cp	r22, r18
 6aa:	73 07       	cpc	r23, r19
 6ac:	1c f4       	brge	.+6      	; 0x6b4 <DS18X20_temp_cmp+0x20>
 6ae:	4f ef       	ldi	r20, 0xFF	; 255
 6b0:	5f ef       	ldi	r21, 0xFF	; 255
 6b2:	07 c0       	rjmp	.+14     	; 0x6c2 <DS18X20_temp_cmp+0x2e>
 6b4:	40 e0       	ldi	r20, 0x00	; 0
 6b6:	50 e0       	ldi	r21, 0x00	; 0
 6b8:	26 17       	cp	r18, r22
 6ba:	37 07       	cpc	r19, r23
 6bc:	14 f4       	brge	.+4      	; 0x6c2 <DS18X20_temp_cmp+0x2e>
 6be:	41 e0       	ldi	r20, 0x01	; 1
 6c0:	50 e0       	ldi	r21, 0x00	; 0
 6c2:	ca 01       	movw	r24, r20
 6c4:	08 95       	ret

000006c6 <DS18X20_read_meas_single>:
 6c6:	7f 92       	push	r7
 6c8:	8f 92       	push	r8
 6ca:	9f 92       	push	r9
 6cc:	af 92       	push	r10
 6ce:	bf 92       	push	r11
 6d0:	cf 92       	push	r12
 6d2:	df 92       	push	r13
 6d4:	ef 92       	push	r14
 6d6:	ff 92       	push	r15
 6d8:	0f 93       	push	r16
 6da:	1f 93       	push	r17
 6dc:	df 93       	push	r29
 6de:	cf 93       	push	r28
 6e0:	cd b7       	in	r28, 0x3d	; 61
 6e2:	de b7       	in	r29, 0x3e	; 62
 6e4:	29 97       	sbiw	r28, 0x09	; 9
 6e6:	0f b6       	in	r0, 0x3f	; 63
 6e8:	f8 94       	cli
 6ea:	de bf       	out	0x3e, r29	; 62
 6ec:	0f be       	out	0x3f, r0	; 63
 6ee:	cd bf       	out	0x3d, r28	; 61
 6f0:	78 2e       	mov	r7, r24
 6f2:	6b 01       	movw	r12, r22
 6f4:	5a 01       	movw	r10, r20
 6f6:	49 01       	movw	r8, r18
 6f8:	8e eb       	ldi	r24, 0xBE	; 190
 6fa:	60 e0       	ldi	r22, 0x00	; 0
 6fc:	70 e0       	ldi	r23, 0x00	; 0
 6fe:	b3 d1       	rcall	.+870    	; 0xa66 <ow_command>
 700:	8e 01       	movw	r16, r28
 702:	0f 5f       	subi	r16, 0xFF	; 255
 704:	1f 4f       	sbci	r17, 0xFF	; 255
 706:	4a e0       	ldi	r20, 0x0A	; 10
 708:	e4 2e       	mov	r14, r20
 70a:	f1 2c       	mov	r15, r1
 70c:	ec 0e       	add	r14, r28
 70e:	fd 1e       	adc	r15, r29
 710:	60 d1       	rcall	.+704    	; 0x9d2 <ow_byte_rd>
 712:	f8 01       	movw	r30, r16
 714:	81 93       	st	Z+, r24
 716:	8f 01       	movw	r16, r30
 718:	ee 15       	cp	r30, r14
 71a:	ff 05       	cpc	r31, r15
 71c:	c9 f7       	brne	.-14     	; 0x710 <DS18X20_read_meas_single+0x4a>
 71e:	7e 01       	movw	r14, r28
 720:	08 94       	sec
 722:	e1 1c       	adc	r14, r1
 724:	f1 1c       	adc	r15, r1
 726:	c7 01       	movw	r24, r14
 728:	69 e0       	ldi	r22, 0x09	; 9
 72a:	70 e0       	ldi	r23, 0x00	; 0
 72c:	1a df       	rcall	.-460    	; 0x562 <crc8>
 72e:	88 23       	and	r24, r24
 730:	11 f0       	breq	.+4      	; 0x736 <DS18X20_read_meas_single+0x70>
 732:	83 e0       	ldi	r24, 0x03	; 3
 734:	07 c0       	rjmp	.+14     	; 0x744 <DS18X20_read_meas_single+0x7e>
 736:	87 2d       	mov	r24, r7
 738:	b7 01       	movw	r22, r14
 73a:	a6 01       	movw	r20, r12
 73c:	95 01       	movw	r18, r10
 73e:	84 01       	movw	r16, r8
 740:	30 df       	rcall	.-416    	; 0x5a2 <DS18X20_meas_to_cel>
 742:	80 e0       	ldi	r24, 0x00	; 0
 744:	29 96       	adiw	r28, 0x09	; 9
 746:	0f b6       	in	r0, 0x3f	; 63
 748:	f8 94       	cli
 74a:	de bf       	out	0x3e, r29	; 62
 74c:	0f be       	out	0x3f, r0	; 63
 74e:	cd bf       	out	0x3d, r28	; 61
 750:	cf 91       	pop	r28
 752:	df 91       	pop	r29
 754:	1f 91       	pop	r17
 756:	0f 91       	pop	r16
 758:	ff 90       	pop	r15
 75a:	ef 90       	pop	r14
 75c:	df 90       	pop	r13
 75e:	cf 90       	pop	r12
 760:	bf 90       	pop	r11
 762:	af 90       	pop	r10
 764:	9f 90       	pop	r9
 766:	8f 90       	pop	r8
 768:	7f 90       	pop	r7
 76a:	08 95       	ret

0000076c <DS18X20_read_meas>:
 76c:	6f 92       	push	r6
 76e:	7f 92       	push	r7
 770:	8f 92       	push	r8
 772:	9f 92       	push	r9
 774:	af 92       	push	r10
 776:	bf 92       	push	r11
 778:	cf 92       	push	r12
 77a:	df 92       	push	r13
 77c:	ef 92       	push	r14
 77e:	ff 92       	push	r15
 780:	0f 93       	push	r16
 782:	1f 93       	push	r17
 784:	df 93       	push	r29
 786:	cf 93       	push	r28
 788:	cd b7       	in	r28, 0x3d	; 61
 78a:	de b7       	in	r29, 0x3e	; 62
 78c:	29 97       	sbiw	r28, 0x09	; 9
 78e:	0f b6       	in	r0, 0x3f	; 63
 790:	f8 94       	cli
 792:	de bf       	out	0x3e, r29	; 62
 794:	0f be       	out	0x3f, r0	; 63
 796:	cd bf       	out	0x3d, r28	; 61
 798:	6c 01       	movw	r12, r24
 79a:	5b 01       	movw	r10, r22
 79c:	4a 01       	movw	r8, r20
 79e:	39 01       	movw	r6, r18
 7a0:	dc d0       	rcall	.+440    	; 0x95a <ow_reset>
 7a2:	8e eb       	ldi	r24, 0xBE	; 190
 7a4:	b6 01       	movw	r22, r12
 7a6:	5f d1       	rcall	.+702    	; 0xa66 <ow_command>
 7a8:	8e 01       	movw	r16, r28
 7aa:	0f 5f       	subi	r16, 0xFF	; 255
 7ac:	1f 4f       	sbci	r17, 0xFF	; 255
 7ae:	5a e0       	ldi	r21, 0x0A	; 10
 7b0:	e5 2e       	mov	r14, r21
 7b2:	f1 2c       	mov	r15, r1
 7b4:	ec 0e       	add	r14, r28
 7b6:	fd 1e       	adc	r15, r29
 7b8:	0c d1       	rcall	.+536    	; 0x9d2 <ow_byte_rd>
 7ba:	f8 01       	movw	r30, r16
 7bc:	81 93       	st	Z+, r24
 7be:	8f 01       	movw	r16, r30
 7c0:	ee 15       	cp	r30, r14
 7c2:	ff 05       	cpc	r31, r15
 7c4:	c9 f7       	brne	.-14     	; 0x7b8 <DS18X20_read_meas+0x4c>
 7c6:	7e 01       	movw	r14, r28
 7c8:	08 94       	sec
 7ca:	e1 1c       	adc	r14, r1
 7cc:	f1 1c       	adc	r15, r1
 7ce:	c7 01       	movw	r24, r14
 7d0:	69 e0       	ldi	r22, 0x09	; 9
 7d2:	70 e0       	ldi	r23, 0x00	; 0
 7d4:	c6 de       	rcall	.-628    	; 0x562 <crc8>
 7d6:	88 23       	and	r24, r24
 7d8:	11 f0       	breq	.+4      	; 0x7de <DS18X20_read_meas+0x72>
 7da:	83 e0       	ldi	r24, 0x03	; 3
 7dc:	08 c0       	rjmp	.+16     	; 0x7ee <DS18X20_read_meas+0x82>
 7de:	f6 01       	movw	r30, r12
 7e0:	80 81       	ld	r24, Z
 7e2:	b7 01       	movw	r22, r14
 7e4:	a5 01       	movw	r20, r10
 7e6:	94 01       	movw	r18, r8
 7e8:	83 01       	movw	r16, r6
 7ea:	db de       	rcall	.-586    	; 0x5a2 <DS18X20_meas_to_cel>
 7ec:	80 e0       	ldi	r24, 0x00	; 0
 7ee:	29 96       	adiw	r28, 0x09	; 9
 7f0:	0f b6       	in	r0, 0x3f	; 63
 7f2:	f8 94       	cli
 7f4:	de bf       	out	0x3e, r29	; 62
 7f6:	0f be       	out	0x3f, r0	; 63
 7f8:	cd bf       	out	0x3d, r28	; 61
 7fa:	cf 91       	pop	r28
 7fc:	df 91       	pop	r29
 7fe:	1f 91       	pop	r17
 800:	0f 91       	pop	r16
 802:	ff 90       	pop	r15
 804:	ef 90       	pop	r14
 806:	df 90       	pop	r13
 808:	cf 90       	pop	r12
 80a:	bf 90       	pop	r11
 80c:	af 90       	pop	r10
 80e:	9f 90       	pop	r9
 810:	8f 90       	pop	r8
 812:	7f 90       	pop	r7
 814:	6f 90       	pop	r6
 816:	08 95       	ret

00000818 <DS18X20_start_meas>:
 818:	1f 93       	push	r17
 81a:	cf 93       	push	r28
 81c:	df 93       	push	r29
 81e:	18 2f       	mov	r17, r24
 820:	eb 01       	movw	r28, r22
 822:	9b d0       	rcall	.+310    	; 0x95a <ow_reset>
 824:	91 d0       	rcall	.+290    	; 0x948 <ow_input_pin_state>
 826:	88 23       	and	r24, r24
 828:	11 f4       	brne	.+4      	; 0x82e <DS18X20_start_meas+0x16>
 82a:	82 e0       	ldi	r24, 0x02	; 2
 82c:	07 c0       	rjmp	.+14     	; 0x83c <DS18X20_start_meas+0x24>
 82e:	84 e4       	ldi	r24, 0x44	; 68
 830:	be 01       	movw	r22, r28
 832:	19 d1       	rcall	.+562    	; 0xa66 <ow_command>
 834:	11 30       	cpi	r17, 0x01	; 1
 836:	09 f0       	breq	.+2      	; 0x83a <DS18X20_start_meas+0x22>
 838:	8a d0       	rcall	.+276    	; 0x94e <ow_parasite_enable>
 83a:	80 e0       	ldi	r24, 0x00	; 0
 83c:	df 91       	pop	r29
 83e:	cf 91       	pop	r28
 840:	1f 91       	pop	r17
 842:	08 95       	ret

00000844 <DS18X20_get_power_status>:
 844:	0f 93       	push	r16
 846:	1f 93       	push	r17
 848:	8c 01       	movw	r16, r24
 84a:	87 d0       	rcall	.+270    	; 0x95a <ow_reset>
 84c:	84 eb       	ldi	r24, 0xB4	; 180
 84e:	b8 01       	movw	r22, r16
 850:	0a d1       	rcall	.+532    	; 0xa66 <ow_command>
 852:	81 e0       	ldi	r24, 0x01	; 1
 854:	9b d0       	rcall	.+310    	; 0x98c <ow_bit_io>
 856:	18 2f       	mov	r17, r24
 858:	80 d0       	rcall	.+256    	; 0x95a <ow_reset>
 85a:	11 11       	cpse	r17, r1
 85c:	11 e0       	ldi	r17, 0x01	; 1
 85e:	81 2f       	mov	r24, r17
 860:	1f 91       	pop	r17
 862:	0f 91       	pop	r16
 864:	08 95       	ret

00000866 <DS18X20_find_sensor>:
 866:	0f 93       	push	r16
 868:	1f 93       	push	r17
 86a:	cf 93       	push	r28
 86c:	df 93       	push	r29
 86e:	8c 01       	movw	r16, r24
 870:	eb 01       	movw	r28, r22
 872:	f8 01       	movw	r30, r16
 874:	80 81       	ld	r24, Z
 876:	be 01       	movw	r22, r28
 878:	af d0       	rcall	.+350    	; 0x9d8 <ow_rom_search>
 87a:	f8 01       	movw	r30, r16
 87c:	80 83       	st	Z, r24
 87e:	81 50       	subi	r24, 0x01	; 1
 880:	8d 3f       	cpi	r24, 0xFD	; 253
 882:	28 f4       	brcc	.+10     	; 0x88e <DS18X20_find_sensor+0x28>
 884:	88 81       	ld	r24, Y
 886:	88 32       	cpi	r24, 0x28	; 40
 888:	11 f0       	breq	.+4      	; 0x88e <DS18X20_find_sensor+0x28>
 88a:	80 31       	cpi	r24, 0x10	; 16
 88c:	91 f7       	brne	.-28     	; 0x872 <DS18X20_find_sensor+0xc>
 88e:	df 91       	pop	r29
 890:	cf 91       	pop	r28
 892:	1f 91       	pop	r17
 894:	0f 91       	pop	r16
 896:	08 95       	ret

00000898 <search_sensors>:
 898:	8f 92       	push	r8
 89a:	9f 92       	push	r9
 89c:	af 92       	push	r10
 89e:	bf 92       	push	r11
 8a0:	cf 92       	push	r12
 8a2:	df 92       	push	r13
 8a4:	ff 92       	push	r15
 8a6:	0f 93       	push	r16
 8a8:	1f 93       	push	r17
 8aa:	df 93       	push	r29
 8ac:	cf 93       	push	r28
 8ae:	cd b7       	in	r28, 0x3d	; 61
 8b0:	de b7       	in	r29, 0x3e	; 62
 8b2:	29 97       	sbiw	r28, 0x09	; 9
 8b4:	0f b6       	in	r0, 0x3f	; 63
 8b6:	f8 94       	cli
 8b8:	de bf       	out	0x3e, r29	; 62
 8ba:	0f be       	out	0x3f, r0	; 63
 8bc:	cd bf       	out	0x3d, r28	; 61
 8be:	8f ef       	ldi	r24, 0xFF	; 255
 8c0:	89 83       	std	Y+1, r24	; 0x01
 8c2:	00 e0       	ldi	r16, 0x00	; 0
 8c4:	10 e0       	ldi	r17, 0x00	; 0
 8c6:	e2 e0       	ldi	r30, 0x02	; 2
 8c8:	ce 2e       	mov	r12, r30
 8ca:	d1 2c       	mov	r13, r1
 8cc:	cc 0e       	add	r12, r28
 8ce:	dd 1e       	adc	r13, r29
 8d0:	4e 01       	movw	r8, r28
 8d2:	08 94       	sec
 8d4:	81 1c       	adc	r8, r1
 8d6:	91 1c       	adc	r9, r1
 8d8:	7a e0       	ldi	r23, 0x0A	; 10
 8da:	a7 2e       	mov	r10, r23
 8dc:	b1 2c       	mov	r11, r1
 8de:	ac 0e       	add	r10, r28
 8e0:	bd 1e       	adc	r11, r29
 8e2:	18 c0       	rjmp	.+48     	; 0x914 <search_sensors+0x7c>
 8e4:	c4 01       	movw	r24, r8
 8e6:	b6 01       	movw	r22, r12
 8e8:	be df       	rcall	.-132    	; 0x866 <DS18X20_find_sensor>
 8ea:	89 81       	ldd	r24, Y+1	; 0x01
 8ec:	8f 3f       	cpi	r24, 0xFF	; 255
 8ee:	c9 f0       	breq	.+50     	; 0x922 <search_sensors+0x8a>
 8f0:	8e 3f       	cpi	r24, 0xFE	; 254
 8f2:	b9 f0       	breq	.+46     	; 0x922 <search_sensors+0x8a>
 8f4:	d6 01       	movw	r26, r12
 8f6:	f8 01       	movw	r30, r16
 8f8:	63 e0       	ldi	r22, 0x03	; 3
 8fa:	ee 0f       	add	r30, r30
 8fc:	ff 1f       	adc	r31, r31
 8fe:	6a 95       	dec	r22
 900:	e1 f7       	brne	.-8      	; 0x8fa <search_sensors+0x62>
 902:	ef 57       	subi	r30, 0x7F	; 127
 904:	ff 4f       	sbci	r31, 0xFF	; 255
 906:	8d 91       	ld	r24, X+
 908:	81 93       	st	Z+, r24
 90a:	aa 15       	cp	r26, r10
 90c:	bb 05       	cpc	r27, r11
 90e:	d9 f7       	brne	.-10     	; 0x906 <search_sensors+0x6e>
 910:	0f 5f       	subi	r16, 0xFF	; 255
 912:	1f 4f       	sbci	r17, 0xFF	; 255
 914:	f0 2e       	mov	r15, r16
 916:	89 81       	ldd	r24, Y+1	; 0x01
 918:	88 23       	and	r24, r24
 91a:	19 f0       	breq	.+6      	; 0x922 <search_sensors+0x8a>
 91c:	04 30       	cpi	r16, 0x04	; 4
 91e:	11 05       	cpc	r17, r1
 920:	09 f7       	brne	.-62     	; 0x8e4 <search_sensors+0x4c>
 922:	8f 2d       	mov	r24, r15
 924:	29 96       	adiw	r28, 0x09	; 9
 926:	0f b6       	in	r0, 0x3f	; 63
 928:	f8 94       	cli
 92a:	de bf       	out	0x3e, r29	; 62
 92c:	0f be       	out	0x3f, r0	; 63
 92e:	cd bf       	out	0x3d, r28	; 61
 930:	cf 91       	pop	r28
 932:	df 91       	pop	r29
 934:	1f 91       	pop	r17
 936:	0f 91       	pop	r16
 938:	ff 90       	pop	r15
 93a:	df 90       	pop	r13
 93c:	cf 90       	pop	r12
 93e:	bf 90       	pop	r11
 940:	af 90       	pop	r10
 942:	9f 90       	pop	r9
 944:	8f 90       	pop	r8
 946:	08 95       	ret

00000948 <ow_input_pin_state>:
 948:	83 b3       	in	r24, 0x13	; 19
 94a:	88 70       	andi	r24, 0x08	; 8
 94c:	08 95       	ret

0000094e <ow_parasite_enable>:
 94e:	ab 9a       	sbi	0x15, 3	; 21
 950:	a3 9a       	sbi	0x14, 3	; 20
 952:	08 95       	ret

00000954 <ow_parasite_disable>:
 954:	ab 98       	cbi	0x15, 3	; 21
 956:	a3 98       	cbi	0x14, 3	; 20
 958:	08 95       	ret

0000095a <ow_reset>:
 95a:	ab 98       	cbi	0x15, 3	; 21
 95c:	a3 9a       	sbi	0x14, 3	; 20
 95e:	8f e2       	ldi	r24, 0x2F	; 47
 960:	95 e0       	ldi	r25, 0x05	; 5
 962:	01 97       	sbiw	r24, 0x01	; 1
 964:	f1 f7       	brne	.-4      	; 0x962 <ow_reset+0x8>
 966:	8f b7       	in	r24, 0x3f	; 63
 968:	f8 94       	cli
 96a:	a3 98       	cbi	0x14, 3	; 20
 96c:	93 ef       	ldi	r25, 0xF3	; 243
 96e:	9a 95       	dec	r25
 970:	f1 f7       	brne	.-4      	; 0x96e <ow_reset+0x14>
 972:	23 b3       	in	r18, 0x13	; 19
 974:	8f bf       	out	0x3f, r24	; 63
 976:	88 e7       	ldi	r24, 0x78	; 120
 978:	94 e0       	ldi	r25, 0x04	; 4
 97a:	01 97       	sbiw	r24, 0x01	; 1
 97c:	f1 f7       	brne	.-4      	; 0x97a <ow_reset+0x20>
 97e:	9b 99       	sbic	0x13, 3	; 19
 980:	02 c0       	rjmp	.+4      	; 0x986 <ow_reset+0x2c>
 982:	81 e0       	ldi	r24, 0x01	; 1
 984:	08 95       	ret
 986:	82 2f       	mov	r24, r18
 988:	88 70       	andi	r24, 0x08	; 8
 98a:	08 95       	ret

0000098c <ow_bit_io>:
 98c:	2f b7       	in	r18, 0x3f	; 63
 98e:	f8 94       	cli
 990:	a3 9a       	sbi	0x14, 3	; 20
 992:	93 e0       	ldi	r25, 0x03	; 3
 994:	9a 95       	dec	r25
 996:	f1 f7       	brne	.-4      	; 0x994 <ow_bit_io+0x8>
 998:	81 11       	cpse	r24, r1
 99a:	a3 98       	cbi	0x14, 3	; 20
 99c:	97 e3       	ldi	r25, 0x37	; 55
 99e:	9a 95       	dec	r25
 9a0:	f1 f7       	brne	.-4      	; 0x99e <ow_bit_io+0x12>
 9a2:	9b 9b       	sbis	0x13, 3	; 19
 9a4:	80 e0       	ldi	r24, 0x00	; 0
 9a6:	95 ea       	ldi	r25, 0xA5	; 165
 9a8:	9a 95       	dec	r25
 9aa:	f1 f7       	brne	.-4      	; 0x9a8 <ow_bit_io+0x1c>
 9ac:	a3 98       	cbi	0x14, 3	; 20
 9ae:	2f bf       	out	0x3f, r18	; 63
 9b0:	08 95       	ret

000009b2 <ow_byte_wr>:
 9b2:	0f 93       	push	r16
 9b4:	1f 93       	push	r17
 9b6:	18 2f       	mov	r17, r24
 9b8:	08 e0       	ldi	r16, 0x08	; 8
 9ba:	81 2f       	mov	r24, r17
 9bc:	81 70       	andi	r24, 0x01	; 1
 9be:	e6 df       	rcall	.-52     	; 0x98c <ow_bit_io>
 9c0:	16 95       	lsr	r17
 9c2:	81 11       	cpse	r24, r1
 9c4:	10 68       	ori	r17, 0x80	; 128
 9c6:	01 50       	subi	r16, 0x01	; 1
 9c8:	c1 f7       	brne	.-16     	; 0x9ba <ow_byte_wr+0x8>
 9ca:	81 2f       	mov	r24, r17
 9cc:	1f 91       	pop	r17
 9ce:	0f 91       	pop	r16
 9d0:	08 95       	ret

000009d2 <ow_byte_rd>:
 9d2:	8f ef       	ldi	r24, 0xFF	; 255
 9d4:	ee df       	rcall	.-36     	; 0x9b2 <ow_byte_wr>
 9d6:	08 95       	ret

000009d8 <ow_rom_search>:
 9d8:	df 92       	push	r13
 9da:	ef 92       	push	r14
 9dc:	ff 92       	push	r15
 9de:	0f 93       	push	r16
 9e0:	1f 93       	push	r17
 9e2:	cf 93       	push	r28
 9e4:	df 93       	push	r29
 9e6:	e8 2e       	mov	r14, r24
 9e8:	eb 01       	movw	r28, r22
 9ea:	b7 df       	rcall	.-146    	; 0x95a <ow_reset>
 9ec:	88 23       	and	r24, r24
 9ee:	81 f5       	brne	.+96     	; 0xa50 <ow_rom_search+0x78>
 9f0:	80 ef       	ldi	r24, 0xF0	; 240
 9f2:	df df       	rcall	.-66     	; 0x9b2 <ow_byte_wr>
 9f4:	80 e4       	ldi	r24, 0x40	; 64
 9f6:	ff 24       	eor	r15, r15
 9f8:	18 2f       	mov	r17, r24
 9fa:	98 ef       	ldi	r25, 0xF8	; 248
 9fc:	d9 2e       	mov	r13, r25
 9fe:	d8 0e       	add	r13, r24
 a00:	81 e0       	ldi	r24, 0x01	; 1
 a02:	c4 df       	rcall	.-120    	; 0x98c <ow_bit_io>
 a04:	08 2f       	mov	r16, r24
 a06:	81 e0       	ldi	r24, 0x01	; 1
 a08:	c1 df       	rcall	.-126    	; 0x98c <ow_bit_io>
 a0a:	88 23       	and	r24, r24
 a0c:	29 f0       	breq	.+10     	; 0xa18 <ow_rom_search+0x40>
 a0e:	00 23       	and	r16, r16
 a10:	71 f0       	breq	.+28     	; 0xa2e <ow_rom_search+0x56>
 a12:	8e ef       	ldi	r24, 0xFE	; 254
 a14:	f8 2e       	mov	r15, r24
 a16:	1e c0       	rjmp	.+60     	; 0xa54 <ow_rom_search+0x7c>
 a18:	00 23       	and	r16, r16
 a1a:	49 f4       	brne	.+18     	; 0xa2e <ow_rom_search+0x56>
 a1c:	1e 15       	cp	r17, r14
 a1e:	28 f0       	brcs	.+10     	; 0xa2a <ow_rom_search+0x52>
 a20:	88 81       	ld	r24, Y
 a22:	80 ff       	sbrs	r24, 0
 a24:	04 c0       	rjmp	.+8      	; 0xa2e <ow_rom_search+0x56>
 a26:	e1 16       	cp	r14, r17
 a28:	11 f0       	breq	.+4      	; 0xa2e <ow_rom_search+0x56>
 a2a:	f1 2e       	mov	r15, r17
 a2c:	01 e0       	ldi	r16, 0x01	; 1
 a2e:	80 2f       	mov	r24, r16
 a30:	ad df       	rcall	.-166    	; 0x98c <ow_bit_io>
 a32:	88 81       	ld	r24, Y
 a34:	86 95       	lsr	r24
 a36:	88 83       	st	Y, r24
 a38:	00 23       	and	r16, r16
 a3a:	11 f0       	breq	.+4      	; 0xa40 <ow_rom_search+0x68>
 a3c:	80 68       	ori	r24, 0x80	; 128
 a3e:	88 83       	st	Y, r24
 a40:	11 50       	subi	r17, 0x01	; 1
 a42:	1d 15       	cp	r17, r13
 a44:	e9 f6       	brne	.-70     	; 0xa00 <ow_rom_search+0x28>
 a46:	11 23       	and	r17, r17
 a48:	29 f0       	breq	.+10     	; 0xa54 <ow_rom_search+0x7c>
 a4a:	21 96       	adiw	r28, 0x01	; 1
 a4c:	81 2f       	mov	r24, r17
 a4e:	d4 cf       	rjmp	.-88     	; 0x9f8 <ow_rom_search+0x20>
 a50:	ff 24       	eor	r15, r15
 a52:	fa 94       	dec	r15
 a54:	8f 2d       	mov	r24, r15
 a56:	df 91       	pop	r29
 a58:	cf 91       	pop	r28
 a5a:	1f 91       	pop	r17
 a5c:	0f 91       	pop	r16
 a5e:	ff 90       	pop	r15
 a60:	ef 90       	pop	r14
 a62:	df 90       	pop	r13
 a64:	08 95       	ret

00000a66 <ow_command>:
 a66:	0f 93       	push	r16
 a68:	1f 93       	push	r17
 a6a:	cf 93       	push	r28
 a6c:	df 93       	push	r29
 a6e:	08 2f       	mov	r16, r24
 a70:	eb 01       	movw	r28, r22
 a72:	73 df       	rcall	.-282    	; 0x95a <ow_reset>
 a74:	20 97       	sbiw	r28, 0x00	; 0
 a76:	41 f0       	breq	.+16     	; 0xa88 <ow_command+0x22>
 a78:	85 e5       	ldi	r24, 0x55	; 85
 a7a:	9b df       	rcall	.-202    	; 0x9b2 <ow_byte_wr>
 a7c:	18 e0       	ldi	r17, 0x08	; 8
 a7e:	89 91       	ld	r24, Y+
 a80:	98 df       	rcall	.-208    	; 0x9b2 <ow_byte_wr>
 a82:	11 50       	subi	r17, 0x01	; 1
 a84:	e1 f7       	brne	.-8      	; 0xa7e <ow_command+0x18>
 a86:	02 c0       	rjmp	.+4      	; 0xa8c <ow_command+0x26>
 a88:	8c ec       	ldi	r24, 0xCC	; 204
 a8a:	93 df       	rcall	.-218    	; 0x9b2 <ow_byte_wr>
 a8c:	80 2f       	mov	r24, r16
 a8e:	91 df       	rcall	.-222    	; 0x9b2 <ow_byte_wr>
 a90:	df 91       	pop	r29
 a92:	cf 91       	pop	r28
 a94:	1f 91       	pop	r17
 a96:	0f 91       	pop	r16
 a98:	08 95       	ret

00000a9a <__udivmodqi4>:
 a9a:	99 1b       	sub	r25, r25
 a9c:	79 e0       	ldi	r23, 0x09	; 9
 a9e:	04 c0       	rjmp	.+8      	; 0xaa8 <__udivmodqi4_ep>

00000aa0 <__udivmodqi4_loop>:
 aa0:	99 1f       	adc	r25, r25
 aa2:	96 17       	cp	r25, r22
 aa4:	08 f0       	brcs	.+2      	; 0xaa8 <__udivmodqi4_ep>
 aa6:	96 1b       	sub	r25, r22

00000aa8 <__udivmodqi4_ep>:
 aa8:	88 1f       	adc	r24, r24
 aaa:	7a 95       	dec	r23
 aac:	c9 f7       	brne	.-14     	; 0xaa0 <__udivmodqi4_loop>
 aae:	80 95       	com	r24
 ab0:	08 95       	ret

00000ab2 <_exit>:
 ab2:	f8 94       	cli

00000ab4 <__stop_program>:
 ab4:	ff cf       	rjmp	.-2      	; 0xab4 <__stop_program>
